(lp0
(dp1
S'patchiness'
p2
ccopy_reg
_reconstructor
p3
(cnetworkx.classes.digraph
DiGraph
p4
c__builtin__
object
p5
Ntp6
Rp7
(dp8
S'node'
p9
(dp10
S'5-06'
p11
(dp12
S'stage'
p13
I5
sS'scale'
p14
cnumpy.core.multiarray
scalar
p15
(cnumpy
dtype
p16
(S'i8'
p17
I0
I1
tp18
Rp19
(I3
S'<'
p20
NNNI-1
I-1
I0
tp21
bS'\x02\x00\x00\x00\x00\x00\x00\x00'
p22
tp23
Rp24
sS'flush'
p25
I1
sS'cycle'
p26
I2
sS'patch'
p27
S'Q'
p28
ssS'5-07'
p29
(dp30
g13
I5
sg14
g15
(g19
S'\x03\x00\x00\x00\x00\x00\x00\x00'
p31
tp32
Rp33
sg25
I1
sg26
I2
sg27
g28
ssS'5-04'
p34
(dp35
g13
I5
sg14
g15
(g19
S'\x03\x00\x00\x00\x00\x00\x00\x00'
p36
tp37
Rp38
sg25
I1
sg26
I2
sg27
g28
ssS'5-05'
p39
(dp40
g13
I5
sg14
g15
(g19
S'\x02\x00\x00\x00\x00\x00\x00\x00'
p41
tp42
Rp43
sg25
I1
sg26
I2
sg27
g28
ssS'5-02'
p44
(dp45
g13
I5
sg14
g15
(g19
S'\x03\x00\x00\x00\x00\x00\x00\x00'
p46
tp47
Rp48
sg25
I1
sg26
I2
sg27
g28
ssS'5-03'
p49
(dp50
g13
I5
sg14
g15
(g19
S'\x03\x00\x00\x00\x00\x00\x00\x00'
p51
tp52
Rp53
sg25
I1
sg26
I2
sg27
g28
ssS'5-00'
p54
(dp55
g13
I5
sg14
g15
(g19
S'\x05\x00\x00\x00\x00\x00\x00\x00'
p56
tp57
Rp58
sg25
I1
sg26
I2
sg27
S'V'
p59
ssS'5-01'
p60
(dp61
g13
I5
sg14
g15
(g19
S'\x02\x00\x00\x00\x00\x00\x00\x00'
p62
tp63
Rp64
sg25
I1
sg26
I2
sg27
g28
ssS'8-00'
p65
(dp66
g13
I8
sg14
g15
(g19
S'\x05\x00\x00\x00\x00\x00\x00\x00'
p67
tp68
Rp69
sg25
I1
sg26
I3
sg27
NssS'7-00'
p70
(dp71
g13
I7
sg14
g15
(g19
S'\x05\x00\x00\x00\x00\x00\x00\x00'
p72
tp73
Rp74
sg25
I0
sg26
I3
sg27
NssS'5-08'
p75
(dp76
g13
I5
sg14
g15
(g19
S'\x02\x00\x00\x00\x00\x00\x00\x00'
p77
tp78
Rp79
sg25
I1
sg26
I2
sg27
g28
ssS'5-09'
p80
(dp81
g13
I5
sg14
g15
(g19
S'\x02\x00\x00\x00\x00\x00\x00\x00'
p82
tp83
Rp84
sg25
I1
sg26
I2
sg27
g28
ssS'0-00'
p85
(dp86
g13
I0
sg14
g15
(g19
S'\x05\x00\x00\x00\x00\x00\x00\x00'
p87
tp88
Rp89
sg25
I2
sg26
I0
sg27
g28
ssS'2-05'
p90
(dp91
g13
I2
sg14
g15
(g19
S'\x02\x00\x00\x00\x00\x00\x00\x00'
p92
tp93
Rp94
sg25
I1
sg26
I1
sg27
g28
ssS'2-04'
p95
(dp96
g13
I2
sg14
g15
(g19
S'\x02\x00\x00\x00\x00\x00\x00\x00'
p97
tp98
Rp99
sg25
I1
sg26
I1
sg27
g28
ssS'2-03'
p100
(dp101
g13
I2
sg14
g15
(g19
S'\x02\x00\x00\x00\x00\x00\x00\x00'
p102
tp103
Rp104
sg25
I1
sg26
I1
sg27
g28
ssS'2-02'
p105
(dp106
g13
I2
sg14
g15
(g19
S'\x02\x00\x00\x00\x00\x00\x00\x00'
p107
tp108
Rp109
sg25
I1
sg26
I1
sg27
g28
ssS'2-01'
p110
(dp111
g13
I2
sg14
g15
(g19
S'\x04\x00\x00\x00\x00\x00\x00\x00'
p112
tp113
Rp114
sg25
I1
sg26
I1
sg27
S'V'
p115
ssS'2-00'
p116
(dp117
g13
I2
sg14
g15
(g19
S'\x05\x00\x00\x00\x00\x00\x00\x00'
p118
tp119
Rp120
sg25
I1
sg26
I1
sg27
g115
ssS'4-04'
p121
(dp122
g13
I4
sg14
g15
(g19
S'\x03\x00\x00\x00\x00\x00\x00\x00'
p123
tp124
Rp125
sg25
I0
sg26
I2
sg27
g59
ssS'4-01'
p126
(dp127
g13
I4
sg14
g15
(g19
S'\x03\x00\x00\x00\x00\x00\x00\x00'
p128
tp129
Rp130
sg25
I0
sg26
I2
sg27
g59
ssS'4-00'
p131
(dp132
g13
I4
sg14
g15
(g19
S'\x05\x00\x00\x00\x00\x00\x00\x00'
p133
tp134
Rp135
sg25
I0
sg26
I2
sg27
g28
ssS'4-03'
p136
(dp137
g13
I4
sg14
g15
(g19
S'\x02\x00\x00\x00\x00\x00\x00\x00'
p138
tp139
Rp140
sg25
I0
sg26
I2
sg27
g115
ssS'4-02'
p141
(dp142
g13
I4
sg14
g15
(g19
S'\x03\x00\x00\x00\x00\x00\x00\x00'
p143
tp144
Rp145
sg25
I0
sg26
I2
sg27
g115
ssS'6-03'
p146
(dp147
g13
I6
sg14
g15
(g19
S'\x02\x00\x00\x00\x00\x00\x00\x00'
p148
tp149
Rp150
sg25
I2
sg26
I2
sg27
g28
ssS'6-02'
p151
(dp152
g13
I6
sg14
g15
(g19
S'\x03\x00\x00\x00\x00\x00\x00\x00'
p153
tp154
Rp155
sg25
I2
sg26
I2
sg27
g59
ssS'6-01'
p156
(dp157
g13
I6
sg14
g15
(g19
S'\x04\x00\x00\x00\x00\x00\x00\x00'
p158
tp159
Rp160
sg25
I2
sg26
I2
sg27
S'R'
p161
ssS'6-00'
p162
(dp163
g13
I6
sg14
g15
(g19
S'\x05\x00\x00\x00\x00\x00\x00\x00'
p164
tp165
Rp166
sg25
I2
sg26
I2
sg27
g161
ssS'1-00'
p167
(dp168
g13
I1
sg14
g15
(g19
S'\x05\x00\x00\x00\x00\x00\x00\x00'
p169
tp170
Rp171
sg25
I0
sg26
I1
sg27
g28
ssS'3-00'
p172
(dp173
g13
I3
sg14
g15
(g19
S'\x05\x00\x00\x00\x00\x00\x00\x00'
p174
tp175
Rp176
sg25
I2
sg26
I1
sg27
g115
ssS'3-01'
p177
(dp178
g13
I3
sg14
g15
(g19
S'\x02\x00\x00\x00\x00\x00\x00\x00'
p179
tp180
Rp181
sg25
I2
sg26
I1
sg27
g28
ssS'3-02'
p182
(dp183
g13
I3
sg14
g15
(g19
S'\x02\x00\x00\x00\x00\x00\x00\x00'
p184
tp185
Rp186
sg25
I2
sg26
I1
sg27
g28
ssS'3-03'
p187
(dp188
g13
I3
sg14
g15
(g19
S'\x02\x00\x00\x00\x00\x00\x00\x00'
p189
tp190
Rp191
sg25
I2
sg26
I1
sg27
g115
sssS'node_dict_factory'
p192
c__builtin__
dict
p193
sS'edge_attr_dict_factory'
p194
g193
sS'succ'
p195
(dp196
g11
(dp197
S'6-00'
p198
(dp199
ssg29
(dp200
S'6-00'
p201
(dp202
ssg34
(dp203
S'6-01'
p204
(dp205
ssg39
(dp206
S'6-00'
p207
(dp208
ssg44
(dp209
S'6-00'
p210
(dp211
ssg49
(dp212
S'6-00'
p213
(dp214
ssg54
(dp215
S'6-02'
p216
(dp217
sS'6-01'
p218
(dp219
sS'6-00'
p220
(dp221
ssg60
(dp222
S'6-00'
p223
(dp224
ssg65
(dp225
sg70
(dp226
S'8-00'
p227
(dp228
ssg75
(dp229
S'6-03'
p230
(dp231
ssg80
(dp232
S'6-00'
p233
(dp234
ssg85
(dp235
S'1-00'
p236
(dp237
ssg90
(dp238
S'3-00'
p239
(dp240
ssg95
(dp241
S'3-00'
p242
(dp243
ssg100
(dp244
S'3-00'
p245
(dp246
ssg105
(dp247
S'3-01'
p248
(dp249
ssg110
(dp250
S'3-00'
p251
(dp252
ssg116
(dp253
S'3-00'
p254
(dp255
sS'3-02'
p256
(dp257
sS'3-03'
p258
(dp259
ssg121
(dp260
S'5-00'
p261
(dp262
ssg126
(dp263
S'5-00'
p264
(dp265
ssg131
(dp266
S'5-06'
p267
(dp268
sS'5-07'
p269
(dp270
sS'5-04'
p271
(dp272
sS'5-05'
p273
(dp274
sS'5-02'
p275
(dp276
sS'5-03'
p277
(dp278
sS'5-00'
p279
(dp280
sS'5-01'
p281
(dp282
sS'5-08'
p283
(dp284
sS'5-09'
p285
(dp286
ssg136
(dp287
S'5-00'
p288
(dp289
ssg141
(dp290
S'5-00'
p291
(dp292
ssg146
(dp293
S'7-00'
p294
(dp295
ssg151
(dp296
S'7-00'
p297
(dp298
ssg156
(dp299
S'7-00'
p300
(dp301
ssg162
(dp302
S'7-00'
p303
(dp304
ssg167
(dp305
S'2-05'
p306
(dp307
sS'2-04'
p308
(dp309
sS'2-03'
p310
(dp311
sS'2-02'
p312
(dp313
sS'2-01'
p314
(dp315
sS'2-00'
p316
(dp317
ssg172
(dp318
S'4-04'
p319
(dp320
sS'4-01'
p321
(dp322
sS'4-00'
p323
(dp324
sS'4-03'
p325
(dp326
sS'4-02'
p327
(dp328
ssg177
(dp329
S'4-00'
p330
(dp331
ssg182
(dp332
S'4-00'
p333
(dp334
ssg187
(dp335
S'4-00'
p336
(dp337
sssS'edge'
p338
g196
sS'graph'
p339
(dp340
sS'adjlist_dict_factory'
p341
g193
sS'adj'
p342
g196
sS'pred'
p343
(dp344
g11
(dp345
S'4-00'
p346
g268
ssg29
(dp347
S'4-00'
p348
g270
ssg34
(dp349
S'4-00'
p350
g272
ssg39
(dp351
S'4-00'
p352
g274
ssg44
(dp353
S'4-00'
p354
g276
ssg49
(dp355
S'4-00'
p356
g278
ssg54
(dp357
S'4-04'
p358
g262
sS'4-01'
p359
g265
sS'4-00'
p360
g280
sS'4-03'
p361
g289
sS'4-02'
p362
g292
ssg60
(dp363
S'4-00'
p364
g282
ssg65
(dp365
S'7-00'
p366
g228
ssg70
(dp367
S'6-03'
p368
g295
sS'6-02'
p369
g298
sS'6-01'
p370
g301
sS'6-00'
p371
g304
ssg75
(dp372
S'4-00'
p373
g284
ssg80
(dp374
S'4-00'
p375
g286
ssg85
(dp376
sg90
(dp377
S'1-00'
p378
g307
ssg95
(dp379
S'1-00'
p380
g309
ssg100
(dp381
S'1-00'
p382
g311
ssg105
(dp383
S'1-00'
p384
g313
ssg110
(dp385
S'1-00'
p386
g315
ssg116
(dp387
S'1-00'
p388
g317
ssg121
(dp389
S'3-00'
p390
g320
ssg126
(dp391
S'3-00'
p392
g322
ssg131
(dp393
S'3-00'
p394
g324
sS'3-01'
p395
g331
sS'3-02'
p396
g334
sS'3-03'
p397
g337
ssg136
(dp398
S'3-00'
p399
g326
ssg141
(dp400
S'3-00'
p401
g328
ssg146
(dp402
S'5-08'
p403
g231
ssg151
(dp404
S'5-00'
p405
g217
ssg156
(dp406
S'5-04'
p407
g205
sS'5-00'
p408
g219
ssg162
(dp409
S'5-06'
p410
g199
sS'5-07'
p411
g202
sS'5-05'
p412
g208
sS'5-02'
p413
g211
sS'5-03'
p414
g214
sS'5-00'
p415
g221
sS'5-01'
p416
g224
sS'5-09'
p417
g234
ssg167
(dp418
S'0-00'
p419
g237
ssg172
(dp420
S'2-05'
p421
g240
sS'2-04'
p422
g243
sS'2-03'
p423
g246
sS'2-01'
p424
g252
sS'2-00'
p425
g255
ssg177
(dp426
S'2-02'
p427
g249
ssg182
(dp428
S'2-00'
p429
g257
ssg187
(dp430
S'2-00'
p431
g259
sssbsS'cultivar'
p432
S'cogshall'
p433
sS'thinned'
p434
I00
sS'tree'
p435
S'B14'
p436
sa(dp437
g2
g3
(g4
g5
Ntp438
Rp439
(dp440
g9
(dp441
S'6-03'
p442
(dp443
g13
I6
sg14
g15
(g19
S'\x04\x00\x00\x00\x00\x00\x00\x00'
p444
tp445
Rp446
sg25
I2
sg26
I2
sg27
g161
ssS'0-00'
p447
(dp448
g13
I0
sg14
g15
(g19
S'\x05\x00\x00\x00\x00\x00\x00\x00'
p449
tp450
Rp451
sg25
I2
sg26
I0
sg27
NssS'5-04'
p452
(dp453
g13
I5
sg14
g15
(g19
S'\x04\x00\x00\x00\x00\x00\x00\x00'
p454
tp455
Rp456
sg25
I1
sg26
I2
sg27
g59
ssS'6-00'
p457
(dp458
g13
I6
sg14
g15
(g19
S'\x05\x00\x00\x00\x00\x00\x00\x00'
p459
tp460
Rp461
sg25
I2
sg26
I2
sg27
g59
ssS'5-02'
p462
(dp463
g13
I5
sg14
g15
(g19
S'\x04\x00\x00\x00\x00\x00\x00\x00'
p464
tp465
Rp466
sg25
I1
sg26
I2
sg27
g59
ssS'5-03'
p467
(dp468
g13
I5
sg14
g15
(g19
S'\x04\x00\x00\x00\x00\x00\x00\x00'
p469
tp470
Rp471
sg25
I1
sg26
I2
sg27
g59
ssS'5-00'
p472
(dp473
g13
I5
sg14
g15
(g19
S'\x05\x00\x00\x00\x00\x00\x00\x00'
p474
tp475
Rp476
sg25
I1
sg26
I2
sg27
g28
ssS'6-02'
p477
(dp478
g13
I6
sg14
g15
(g19
S'\x03\x00\x00\x00\x00\x00\x00\x00'
p479
tp480
Rp481
sg25
I2
sg26
I2
sg27
g28
ssS'8-00'
p482
(dp483
g13
I8
sg14
g15
(g19
S'\x05\x00\x00\x00\x00\x00\x00\x00'
p484
tp485
Rp486
sg25
I1
sg26
I3
sg27
NssS'1-00'
p487
(dp488
g13
I1
sg14
g15
(g19
S'\x05\x00\x00\x00\x00\x00\x00\x00'
p489
tp490
Rp491
sg25
I0
sg26
I1
sg27
NssS'5-01'
p492
(dp493
g13
I5
sg14
g15
(g19
S'\x04\x00\x00\x00\x00\x00\x00\x00'
p494
tp495
Rp496
sg25
I1
sg26
I2
sg27
g59
ssS'7-00'
p497
(dp498
g13
I7
sg14
g15
(g19
S'\x05\x00\x00\x00\x00\x00\x00\x00'
p499
tp500
Rp501
sg25
I0
sg26
I3
sg27
NssS'6-01'
p502
(dp503
g13
I6
sg14
g15
(g19
S'\x04\x00\x00\x00\x00\x00\x00\x00'
p504
tp505
Rp506
sg25
I2
sg26
I2
sg27
g161
ssS'3-00'
p507
(dp508
g13
I3
sg14
g15
(g19
S'\x05\x00\x00\x00\x00\x00\x00\x00'
p509
tp510
Rp511
sg25
I2
sg26
I1
sg27
g115
ssS'3-01'
p512
(dp513
g13
I3
sg14
g15
(g19
S'\x03\x00\x00\x00\x00\x00\x00\x00'
p514
tp515
Rp516
sg25
I2
sg26
I1
sg27
g161
ssS'2-01'
p517
(dp518
g13
I2
sg14
g15
(g19
S'\x03\x00\x00\x00\x00\x00\x00\x00'
p519
tp520
Rp521
sg25
I1
sg26
I1
sg27
g28
ssS'2-00'
p522
(dp523
g13
I2
sg14
g15
(g19
S'\x05\x00\x00\x00\x00\x00\x00\x00'
p524
tp525
Rp526
sg25
I1
sg26
I1
sg27
g115
ssS'4-01'
p527
(dp528
g13
I4
sg14
g15
(g19
S'\x04\x00\x00\x00\x00\x00\x00\x00'
p529
tp530
Rp531
sg25
I0
sg26
I2
sg27
g115
ssS'4-00'
p532
(dp533
g13
I4
sg14
g15
(g19
S'\x05\x00\x00\x00\x00\x00\x00\x00'
p534
tp535
Rp536
sg25
I0
sg26
I2
sg27
g28
sssg192
g193
sg194
g193
sg195
(dp537
g442
(dp538
S'7-00'
p539
(dp540
ssg447
(dp541
S'1-00'
p542
(dp543
ssg452
(dp544
S'6-00'
p545
(dp546
ssg457
(dp547
S'7-00'
p548
(dp549
ssg462
(dp550
S'6-03'
p551
(dp552
sS'6-02'
p553
(dp554
sS'6-00'
p555
(dp556
ssg467
(dp557
S'6-00'
p558
(dp559
ssg472
(dp560
S'6-00'
p561
(dp562
ssg477
(dp563
S'7-00'
p564
(dp565
ssg482
(dp566
sg487
(dp567
S'2-01'
p568
(dp569
sS'2-00'
p570
(dp571
ssg492
(dp572
S'6-01'
p573
(dp574
sS'6-00'
p575
(dp576
ssg497
(dp577
S'8-00'
p578
(dp579
ssg502
(dp580
S'7-00'
p581
(dp582
ssg507
(dp583
S'4-01'
p584
(dp585
sS'4-00'
p586
(dp587
ssg512
(dp588
S'4-00'
p589
(dp590
ssg517
(dp591
S'3-00'
p592
(dp593
ssg522
(dp594
S'3-00'
p595
(dp596
sS'3-01'
p597
(dp598
ssg527
(dp599
S'5-01'
p600
(dp601
ssg532
(dp602
S'5-04'
p603
(dp604
sS'5-02'
p605
(dp606
sS'5-03'
p607
(dp608
sS'5-00'
p609
(dp610
sS'5-01'
p611
(dp612
sssg338
g537
sg339
(dp613
sg341
g193
sg342
g537
sg343
(dp614
g442
(dp615
S'5-02'
p616
g552
ssg447
(dp617
sg452
(dp618
S'4-00'
p619
g604
ssg457
(dp620
S'5-04'
p621
g546
sS'5-02'
p622
g556
sS'5-03'
p623
g559
sS'5-00'
p624
g562
sS'5-01'
p625
g576
ssg462
(dp626
S'4-00'
p627
g606
ssg467
(dp628
S'4-00'
p629
g608
ssg472
(dp630
S'4-00'
p631
g610
ssg477
(dp632
S'5-02'
p633
g554
ssg482
(dp634
S'7-00'
p635
g579
ssg487
(dp636
S'0-00'
p637
g543
ssg492
(dp638
S'4-01'
p639
g601
sS'4-00'
p640
g612
ssg497
(dp641
S'6-03'
p642
g540
sS'6-02'
p643
g565
sS'6-01'
p644
g582
sS'6-00'
p645
g549
ssg502
(dp646
S'5-01'
p647
g574
ssg507
(dp648
S'2-01'
p649
g593
sS'2-00'
p650
g596
ssg512
(dp651
S'2-00'
p652
g598
ssg517
(dp653
S'1-00'
p654
g569
ssg522
(dp655
S'1-00'
p656
g571
ssg527
(dp657
S'3-00'
p658
g585
ssg532
(dp659
S'3-00'
p660
g587
sS'3-01'
p661
g590
sssbsg432
S'cogshall'
p662
sg434
I01
sg435
S'B12'
p663
sa(dp664
g2
g3
(g4
g5
Ntp665
Rp666
(dp667
g9
(dp668
S'6-03'
p669
(dp670
g13
I6
sg14
g15
(g19
S'\x04\x00\x00\x00\x00\x00\x00\x00'
p671
tp672
Rp673
sg25
I2
sg26
I2
sg27
g59
ssS'0-00'
p674
(dp675
g13
I0
sg14
g15
(g19
S'\x05\x00\x00\x00\x00\x00\x00\x00'
p676
tp677
Rp678
sg25
I2
sg26
I0
sg27
g28
ssS'6-01'
p679
(dp680
g13
I6
sg14
g15
(g19
S'\x04\x00\x00\x00\x00\x00\x00\x00'
p681
tp682
Rp683
sg25
I2
sg26
I2
sg27
g59
ssS'6-00'
p684
(dp685
g13
I6
sg14
g15
(g19
S'\x05\x00\x00\x00\x00\x00\x00\x00'
p686
tp687
Rp688
sg25
I2
sg26
I2
sg27
g59
ssS'5-02'
p689
(dp690
g13
I5
sg14
g15
(g19
S'\x03\x00\x00\x00\x00\x00\x00\x00'
p691
tp692
Rp693
sg25
I1
sg26
I2
sg27
g28
ssS'5-00'
p694
(dp695
g13
I5
sg14
g15
(g19
S'\x05\x00\x00\x00\x00\x00\x00\x00'
p696
tp697
Rp698
sg25
I1
sg26
I2
sg27
g59
ssS'6-02'
p699
(dp700
g13
I6
sg14
g15
(g19
S'\x03\x00\x00\x00\x00\x00\x00\x00'
p701
tp702
Rp703
sg25
I2
sg26
I2
sg27
g161
ssS'8-00'
p704
(dp705
g13
I8
sg14
g15
(g19
S'\x05\x00\x00\x00\x00\x00\x00\x00'
p706
tp707
Rp708
sg25
I1
sg26
I3
sg27
NssS'1-00'
p709
(dp710
g13
I1
sg14
g15
(g19
S'\x05\x00\x00\x00\x00\x00\x00\x00'
p711
tp712
Rp713
sg25
I0
sg26
I1
sg27
g28
ssS'5-01'
p714
(dp715
g13
I5
sg14
g15
(g19
S'\x04\x00\x00\x00\x00\x00\x00\x00'
p716
tp717
Rp718
sg25
I1
sg26
I2
sg27
g28
ssS'7-00'
p719
(dp720
g13
I7
sg14
g15
(g19
S'\x05\x00\x00\x00\x00\x00\x00\x00'
p721
tp722
Rp723
sg25
I0
sg26
I3
sg27
NssS'3-00'
p724
(dp725
g13
I3
sg14
g15
(g19
S'\x05\x00\x00\x00\x00\x00\x00\x00'
p726
tp727
Rp728
sg25
I2
sg26
I1
sg27
g115
ssS'3-01'
p729
(dp730
g13
I3
sg14
g15
(g19
S'\x03\x00\x00\x00\x00\x00\x00\x00'
p731
tp732
Rp733
sg25
I2
sg26
I1
sg27
g161
ssS'2-04'
p734
(dp735
g13
I2
sg14
g15
(g19
S'\x02\x00\x00\x00\x00\x00\x00\x00'
p736
tp737
Rp738
sg25
I1
sg26
I1
sg27
g28
ssS'2-03'
p739
(dp740
g13
I2
sg14
g15
(g19
S'\x03\x00\x00\x00\x00\x00\x00\x00'
p741
tp742
Rp743
sg25
I1
sg26
I1
sg27
g59
ssS'2-02'
p744
(dp745
g13
I2
sg14
g15
(g19
S'\x04\x00\x00\x00\x00\x00\x00\x00'
p746
tp747
Rp748
sg25
I1
sg26
I1
sg27
g28
ssS'2-01'
p749
(dp750
g13
I2
sg14
g15
(g19
S'\x04\x00\x00\x00\x00\x00\x00\x00'
p751
tp752
Rp753
sg25
I1
sg26
I1
sg27
g59
ssS'2-00'
p754
(dp755
g13
I2
sg14
g15
(g19
S'\x05\x00\x00\x00\x00\x00\x00\x00'
p756
tp757
Rp758
sg25
I1
sg26
I1
sg27
g115
ssS'4-01'
p759
(dp760
g13
I4
sg14
g15
(g19
S'\x04\x00\x00\x00\x00\x00\x00\x00'
p761
tp762
Rp763
sg25
I0
sg26
I2
sg27
g59
ssS'4-00'
p764
(dp765
g13
I4
sg14
g15
(g19
S'\x05\x00\x00\x00\x00\x00\x00\x00'
p766
tp767
Rp768
sg25
I0
sg26
I2
sg27
g28
sssg192
g193
sg194
g193
sg195
(dp769
g669
(dp770
S'7-00'
p771
(dp772
ssg674
(dp773
S'1-00'
p774
(dp775
ssg679
(dp776
S'7-00'
p777
(dp778
ssg684
(dp779
S'7-00'
p780
(dp781
ssg689
(dp782
S'6-00'
p783
(dp784
ssg694
(dp785
S'6-03'
p786
(dp787
sS'6-02'
p788
(dp789
sS'6-01'
p790
(dp791
sS'6-00'
p792
(dp793
ssg699
(dp794
S'7-00'
p795
(dp796
ssg704
(dp797
sg709
(dp798
S'2-04'
p799
(dp800
sS'2-03'
p801
(dp802
sS'2-02'
p803
(dp804
sS'2-01'
p805
(dp806
sS'2-00'
p807
(dp808
ssg714
(dp809
S'6-00'
p810
(dp811
ssg719
(dp812
S'8-00'
p813
(dp814
ssg724
(dp815
S'4-01'
p816
(dp817
sS'4-00'
p818
(dp819
ssg729
(dp820
S'4-00'
p821
(dp822
ssg734
(dp823
S'3-00'
p824
(dp825
ssg739
(dp826
S'3-01'
p827
(dp828
ssg744
(dp829
S'3-00'
p830
(dp831
ssg749
(dp832
S'3-00'
p833
(dp834
ssg754
(dp835
S'3-00'
p836
(dp837
sS'3-01'
p838
(dp839
ssg759
(dp840
S'5-00'
p841
(dp842
ssg764
(dp843
S'5-02'
p844
(dp845
sS'5-00'
p846
(dp847
sS'5-01'
p848
(dp849
sssg338
g769
sg339
(dp850
sg341
g193
sg342
g769
sg343
(dp851
g669
(dp852
S'5-00'
p853
g787
ssg674
(dp854
sg679
(dp855
S'5-00'
p856
g791
ssg684
(dp857
S'5-02'
p858
g784
sS'5-00'
p859
g793
sS'5-01'
p860
g811
ssg689
(dp861
S'4-00'
p862
g845
ssg694
(dp863
S'4-01'
p864
g842
sS'4-00'
p865
g847
ssg699
(dp866
S'5-00'
p867
g789
ssg704
(dp868
S'7-00'
p869
g814
ssg709
(dp870
S'0-00'
p871
g775
ssg714
(dp872
S'4-00'
p873
g849
ssg719
(dp874
S'6-03'
p875
g772
sS'6-02'
p876
g796
sS'6-01'
p877
g778
sS'6-00'
p878
g781
ssg724
(dp879
S'2-04'
p880
g825
sS'2-02'
p881
g831
sS'2-01'
p882
g834
sS'2-00'
p883
g837
ssg729
(dp884
S'2-03'
p885
g828
sS'2-00'
p886
g839
ssg734
(dp887
S'1-00'
p888
g800
ssg739
(dp889
S'1-00'
p890
g802
ssg744
(dp891
S'1-00'
p892
g804
ssg749
(dp893
S'1-00'
p894
g806
ssg754
(dp895
S'1-00'
p896
g808
ssg759
(dp897
S'3-00'
p898
g817
ssg764
(dp899
S'3-00'
p900
g819
sS'3-01'
p901
g822
sssbsg432
S'cogshall'
p902
sg434
I01
sg435
S'B10'
p903
sa(dp904
g2
g3
(g4
g5
Ntp905
Rp906
(dp907
g9
(dp908
S'0-00'
p909
(dp910
g13
I0
sg14
g15
(g19
S'\x05\x00\x00\x00\x00\x00\x00\x00'
p911
tp912
Rp913
sg25
I2
sg26
I0
sg27
g28
ssS'5-04'
p914
(dp915
g13
I5
sg14
g15
(g19
S'\x03\x00\x00\x00\x00\x00\x00\x00'
p916
tp917
Rp918
sg25
I1
sg26
I2
sg27
g59
ssS'6-00'
p919
(dp920
g13
I6
sg14
g15
(g19
S'\x05\x00\x00\x00\x00\x00\x00\x00'
p921
tp922
Rp923
sg25
I2
sg26
I2
sg27
g161
ssS'5-02'
p924
(dp925
g13
I5
sg14
g15
(g19
S'\x02\x00\x00\x00\x00\x00\x00\x00'
p926
tp927
Rp928
sg25
I1
sg26
I2
sg27
g161
ssS'5-03'
p929
(dp930
g13
I5
sg14
g15
(g19
S'\x04\x00\x00\x00\x00\x00\x00\x00'
p931
tp932
Rp933
sg25
I1
sg26
I2
sg27
g59
ssS'5-00'
p934
(dp935
g13
I5
sg14
g15
(g19
S'\x05\x00\x00\x00\x00\x00\x00\x00'
p936
tp937
Rp938
sg25
I1
sg26
I2
sg27
g59
ssS'5-01'
p939
(dp940
g13
I5
sg14
g15
(g19
S'\x02\x00\x00\x00\x00\x00\x00\x00'
p941
tp942
Rp943
sg25
I1
sg26
I2
sg27
g28
ssS'8-00'
p944
(dp945
g13
I8
sg14
g15
(g19
S'\x05\x00\x00\x00\x00\x00\x00\x00'
p946
tp947
Rp948
sg25
I1
sg26
I3
sg27
NssS'1-00'
p949
(dp950
g13
I1
sg14
g15
(g19
S'\x05\x00\x00\x00\x00\x00\x00\x00'
p951
tp952
Rp953
sg25
I0
sg26
I1
sg27
S'Q'
p954
ssS'7-00'
p955
(dp956
g13
I7
sg14
g15
(g19
S'\x05\x00\x00\x00\x00\x00\x00\x00'
p957
tp958
Rp959
sg25
I0
sg26
I3
sg27
NssS'6-01'
p960
(dp961
g13
I6
sg14
g15
(g19
S'\x03\x00\x00\x00\x00\x00\x00\x00'
p962
tp963
Rp964
sg25
I2
sg26
I2
sg27
g59
ssS'3-00'
p965
(dp966
g13
I3
sg14
g15
(g19
S'\x05\x00\x00\x00\x00\x00\x00\x00'
p967
tp968
Rp969
sg25
I2
sg26
I1
sg27
g115
ssS'2-00'
p970
(dp971
g13
I2
sg14
g15
(g19
S'\x05\x00\x00\x00\x00\x00\x00\x00'
p972
tp973
Rp974
sg25
I1
sg26
I1
sg27
g28
ssS'4-05'
p975
(dp976
g13
I4
sg14
g15
(g19
S'\x04\x00\x00\x00\x00\x00\x00\x00'
p977
tp978
Rp979
sg25
I0
sg26
I2
sg27
g28
ssS'4-04'
p980
(dp981
g13
I4
sg14
g15
(g19
S'\x02\x00\x00\x00\x00\x00\x00\x00'
p982
tp983
Rp984
sg25
I0
sg26
I2
sg27
g115
ssS'4-01'
p985
(dp986
g13
I4
sg14
g15
(g19
S'\x04\x00\x00\x00\x00\x00\x00\x00'
p987
tp988
Rp989
sg25
I0
sg26
I2
sg27
g28
ssS'4-00'
p990
(dp991
g13
I4
sg14
g15
(g19
S'\x05\x00\x00\x00\x00\x00\x00\x00'
p992
tp993
Rp994
sg25
I0
sg26
I2
sg27
g28
ssS'4-03'
p995
(dp996
g13
I4
sg14
g15
(g19
S'\x02\x00\x00\x00\x00\x00\x00\x00'
p997
tp998
Rp999
sg25
I0
sg26
I2
sg27
g115
ssS'4-02'
p1000
(dp1001
g13
I4
sg14
g15
(g19
S'\x02\x00\x00\x00\x00\x00\x00\x00'
p1002
tp1003
Rp1004
sg25
I0
sg26
I2
sg27
g115
sssg192
g193
sg194
g193
sg195
(dp1005
g909
(dp1006
S'1-00'
p1007
(dp1008
ssg914
(dp1009
S'6-00'
p1010
(dp1011
ssg919
(dp1012
S'7-00'
p1013
(dp1014
ssg924
(dp1015
S'6-00'
p1016
(dp1017
ssg929
(dp1018
S'6-00'
p1019
(dp1020
ssg934
(dp1021
S'6-01'
p1022
(dp1023
sS'6-00'
p1024
(dp1025
ssg939
(dp1026
S'6-00'
p1027
(dp1028
ssg944
(dp1029
sg949
(dp1030
S'2-00'
p1031
(dp1032
ssg955
(dp1033
S'8-00'
p1034
(dp1035
ssg960
(dp1036
S'7-00'
p1037
(dp1038
ssg965
(dp1039
S'4-05'
p1040
(dp1041
sS'4-04'
p1042
(dp1043
sS'4-01'
p1044
(dp1045
sS'4-00'
p1046
(dp1047
sS'4-03'
p1048
(dp1049
sS'4-02'
p1050
(dp1051
ssg970
(dp1052
S'3-00'
p1053
(dp1054
ssg975
(dp1055
S'5-00'
p1056
(dp1057
ssg980
(dp1058
S'5-00'
p1059
(dp1060
ssg985
(dp1061
S'5-02'
p1062
(dp1063
sS'5-03'
p1064
(dp1065
sS'5-00'
p1066
(dp1067
sS'5-01'
p1068
(dp1069
ssg990
(dp1070
S'5-00'
p1071
(dp1072
ssg995
(dp1073
S'5-00'
p1074
(dp1075
ssg1000
(dp1076
S'5-04'
p1077
(dp1078
sssg338
g1005
sg339
(dp1079
sg341
g193
sg342
g1005
sg343
(dp1080
g909
(dp1081
sg914
(dp1082
S'4-02'
p1083
g1078
ssg919
(dp1084
S'5-04'
p1085
g1011
sS'5-02'
p1086
g1017
sS'5-03'
p1087
g1020
sS'5-00'
p1088
g1025
sS'5-01'
p1089
g1028
ssg924
(dp1090
S'4-01'
p1091
g1063
ssg929
(dp1092
S'4-01'
p1093
g1065
ssg934
(dp1094
S'4-05'
p1095
g1057
sS'4-04'
p1096
g1060
sS'4-01'
p1097
g1067
sS'4-00'
p1098
g1072
sS'4-03'
p1099
g1075
ssg939
(dp1100
S'4-01'
p1101
g1069
ssg944
(dp1102
S'7-00'
p1103
g1035
ssg949
(dp1104
S'0-00'
p1105
g1008
ssg955
(dp1106
S'6-01'
p1107
g1038
sS'6-00'
p1108
g1014
ssg960
(dp1109
S'5-00'
p1110
g1023
ssg965
(dp1111
S'2-00'
p1112
g1054
ssg970
(dp1113
S'1-00'
p1114
g1032
ssg975
(dp1115
S'3-00'
p1116
g1041
ssg980
(dp1117
S'3-00'
p1118
g1043
ssg985
(dp1119
S'3-00'
p1120
g1045
ssg990
(dp1121
S'3-00'
p1122
g1047
ssg995
(dp1123
S'3-00'
p1124
g1049
ssg1000
(dp1125
S'3-00'
p1126
g1051
sssbsg432
S'jose'
p1127
sg434
I01
sg435
S'B5'
p1128
sa(dp1129
g2
g3
(g4
g5
Ntp1130
Rp1131
(dp1132
g9
(dp1133
S'5-02'
p1134
(dp1135
g13
I5
sg14
g15
(g19
S'\x02\x00\x00\x00\x00\x00\x00\x00'
p1136
tp1137
Rp1138
sg25
I1
sg26
I2
sg27
g59
ssS'5-03'
p1139
(dp1140
g13
I5
sg14
g15
(g19
S'\x04\x00\x00\x00\x00\x00\x00\x00'
p1141
tp1142
Rp1143
sg25
I1
sg26
I2
sg27
g59
ssS'5-00'
p1144
(dp1145
g13
I5
sg14
g15
(g19
S'\x04\x00\x00\x00\x00\x00\x00\x00'
p1146
tp1147
Rp1148
sg25
I1
sg26
I2
sg27
g28
ssS'5-01'
p1149
(dp1150
g13
I5
sg14
g15
(g19
S'\x04\x00\x00\x00\x00\x00\x00\x00'
p1151
tp1152
Rp1153
sg25
I1
sg26
I2
sg27
g161
ssS'8-00'
p1154
(dp1155
g13
I8
sg14
g15
(g19
S'\x05\x00\x00\x00\x00\x00\x00\x00'
p1156
tp1157
Rp1158
sg25
I1
sg26
I3
sg27
NssS'7-00'
p1159
(dp1160
g13
I7
sg14
g15
(g19
S'\x05\x00\x00\x00\x00\x00\x00\x00'
p1161
tp1162
Rp1163
sg25
I0
sg26
I3
sg27
NssS'0-00'
p1164
(dp1165
g13
I0
sg14
g15
(g19
S'\x05\x00\x00\x00\x00\x00\x00\x00'
p1166
tp1167
Rp1168
sg25
I2
sg26
I0
sg27
NssS'2-01'
p1169
(dp1170
g13
I2
sg14
g15
(g19
S'\x04\x00\x00\x00\x00\x00\x00\x00'
p1171
tp1172
Rp1173
sg25
I1
sg26
I1
sg27
g115
ssS'2-00'
p1174
(dp1175
g13
I2
sg14
g15
(g19
S'\x05\x00\x00\x00\x00\x00\x00\x00'
p1176
tp1177
Rp1178
sg25
I1
sg26
I1
sg27
g59
ssS'4-05'
p1179
(dp1180
g13
I4
sg14
g15
(g19
S'\x04\x00\x00\x00\x00\x00\x00\x00'
p1181
tp1182
Rp1183
sg25
I0
sg26
I2
sg27
g115
ssS'4-04'
p1184
(dp1185
g13
I4
sg14
g15
(g19
S'\x02\x00\x00\x00\x00\x00\x00\x00'
p1186
tp1187
Rp1188
sg25
I0
sg26
I2
sg27
g115
ssS'4-01'
p1189
(dp1190
g13
I4
sg14
g15
(g19
S'\x04\x00\x00\x00\x00\x00\x00\x00'
p1191
tp1192
Rp1193
sg25
I0
sg26
I2
sg27
g28
ssS'4-00'
p1194
(dp1195
g13
I4
sg14
g15
(g19
S'\x04\x00\x00\x00\x00\x00\x00\x00'
p1196
tp1197
Rp1198
sg25
I0
sg26
I2
sg27
g28
ssS'4-03'
p1199
(dp1200
g13
I4
sg14
g15
(g19
S'\x02\x00\x00\x00\x00\x00\x00\x00'
p1201
tp1202
Rp1203
sg25
I0
sg26
I2
sg27
g115
ssS'4-02'
p1204
(dp1205
g13
I4
sg14
g15
(g19
S'\x02\x00\x00\x00\x00\x00\x00\x00'
p1206
tp1207
Rp1208
sg25
I0
sg26
I2
sg27
g115
ssS'6-03'
p1209
(dp1210
g13
I6
sg14
g15
(g19
S'\x04\x00\x00\x00\x00\x00\x00\x00'
p1211
tp1212
Rp1213
sg25
I2
sg26
I2
sg27
g59
ssS'6-02'
p1214
(dp1215
g13
I6
sg14
g15
(g19
S'\x02\x00\x00\x00\x00\x00\x00\x00'
p1216
tp1217
Rp1218
sg25
I2
sg26
I2
sg27
g115
ssS'6-01'
p1219
(dp1220
g13
I6
sg14
g15
(g19
S'\x04\x00\x00\x00\x00\x00\x00\x00'
p1221
tp1222
Rp1223
sg25
I2
sg26
I2
sg27
g161
ssS'6-00'
p1224
(dp1225
g13
I6
sg14
g15
(g19
S'\x04\x00\x00\x00\x00\x00\x00\x00'
p1226
tp1227
Rp1228
sg25
I2
sg26
I2
sg27
g59
ssS'1-00'
p1229
(dp1230
g13
I1
sg14
g15
(g19
S'\x05\x00\x00\x00\x00\x00\x00\x00'
p1231
tp1232
Rp1233
sg25
I0
sg26
I1
sg27
g28
ssS'3-00'
p1234
(dp1235
g13
I3
sg14
g15
(g19
S'\x04\x00\x00\x00\x00\x00\x00\x00'
p1236
tp1237
Rp1238
sg25
I2
sg26
I1
sg27
g28
ssS'3-01'
p1239
(dp1240
g13
I3
sg14
g15
(g19
S'\x04\x00\x00\x00\x00\x00\x00\x00'
p1241
tp1242
Rp1243
sg25
I2
sg26
I1
sg27
g115
ssS'3-02'
p1244
(dp1245
g13
I3
sg14
g15
(g19
S'\x04\x00\x00\x00\x00\x00\x00\x00'
p1246
tp1247
Rp1248
sg25
I2
sg26
I1
sg27
g115
ssS'3-03'
p1249
(dp1250
g13
I3
sg14
g15
(g19
S'\x04\x00\x00\x00\x00\x00\x00\x00'
p1251
tp1252
Rp1253
sg25
I2
sg26
I1
sg27
g115
ssS'3-04'
p1254
(dp1255
g13
I3
sg14
g15
(g19
S'\x03\x00\x00\x00\x00\x00\x00\x00'
p1256
tp1257
Rp1258
sg25
I2
sg26
I1
sg27
g115
ssS'3-05'
p1259
(dp1260
g13
I3
sg14
g15
(g19
S'\x03\x00\x00\x00\x00\x00\x00\x00'
p1261
tp1262
Rp1263
sg25
I2
sg26
I1
sg27
g115
sssg192
g193
sg194
g193
sg195
(dp1264
g1134
(dp1265
S'6-02'
p1266
(dp1267
sS'6-01'
p1268
(dp1269
ssg1139
(dp1270
S'6-03'
p1271
(dp1272
sS'6-01'
p1273
(dp1274
ssg1144
(dp1275
S'6-01'
p1276
(dp1277
sS'6-00'
p1278
(dp1279
ssg1149
(dp1280
S'6-01'
p1281
(dp1282
ssg1154
(dp1283
sg1159
(dp1284
S'8-00'
p1285
(dp1286
ssg1164
(dp1287
S'1-00'
p1288
(dp1289
ssg1169
(dp1290
S'3-00'
p1291
(dp1292
sS'3-03'
p1293
(dp1294
sS'3-04'
p1295
(dp1296
sS'3-05'
p1297
(dp1298
ssg1174
(dp1299
S'3-00'
p1300
(dp1301
sS'3-01'
p1302
(dp1303
sS'3-02'
p1304
(dp1305
ssg1179
(dp1306
S'5-03'
p1307
(dp1308
ssg1184
(dp1309
S'5-02'
p1310
(dp1311
ssg1189
(dp1312
S'5-00'
p1313
(dp1314
sS'5-01'
p1315
(dp1316
ssg1194
(dp1317
S'5-00'
p1318
(dp1319
ssg1199
(dp1320
S'5-00'
p1321
(dp1322
ssg1204
(dp1323
S'5-00'
p1324
(dp1325
ssg1209
(dp1326
S'7-00'
p1327
(dp1328
ssg1214
(dp1329
S'7-00'
p1330
(dp1331
ssg1219
(dp1332
S'7-00'
p1333
(dp1334
ssg1224
(dp1335
S'7-00'
p1336
(dp1337
ssg1229
(dp1338
S'2-01'
p1339
(dp1340
sS'2-00'
p1341
(dp1342
ssg1234
(dp1343
S'4-01'
p1344
(dp1345
sS'4-00'
p1346
(dp1347
ssg1239
(dp1348
S'4-00'
p1349
(dp1350
sS'4-03'
p1351
(dp1352
sS'4-02'
p1353
(dp1354
ssg1244
(dp1355
S'4-00'
p1356
(dp1357
ssg1249
(dp1358
S'4-01'
p1359
(dp1360
ssg1254
(dp1361
S'4-04'
p1362
(dp1363
sS'4-01'
p1364
(dp1365
ssg1259
(dp1366
S'4-05'
p1367
(dp1368
sssg338
g1264
sg339
(dp1369
sg341
g193
sg342
g1264
sg343
(dp1370
g1134
(dp1371
S'4-04'
p1372
g1311
ssg1139
(dp1373
S'4-05'
p1374
g1308
ssg1144
(dp1375
S'4-01'
p1376
g1314
sS'4-00'
p1377
g1319
sS'4-03'
p1378
g1322
sS'4-02'
p1379
g1325
ssg1149
(dp1380
S'4-01'
p1381
g1316
ssg1154
(dp1382
S'7-00'
p1383
g1286
ssg1159
(dp1384
S'6-03'
p1385
g1328
sS'6-02'
p1386
g1331
sS'6-01'
p1387
g1334
sS'6-00'
p1388
g1337
ssg1164
(dp1389
sg1169
(dp1390
S'1-00'
p1391
g1340
ssg1174
(dp1392
S'1-00'
p1393
g1342
ssg1179
(dp1394
S'3-05'
p1395
g1368
ssg1184
(dp1396
S'3-04'
p1397
g1363
ssg1189
(dp1398
S'3-00'
p1399
g1345
sS'3-03'
p1400
g1360
sS'3-04'
p1401
g1365
ssg1194
(dp1402
S'3-00'
p1403
g1347
sS'3-01'
p1404
g1350
sS'3-02'
p1405
g1357
ssg1199
(dp1406
S'3-01'
p1407
g1352
ssg1204
(dp1408
S'3-01'
p1409
g1354
ssg1209
(dp1410
S'5-03'
p1411
g1272
ssg1214
(dp1412
S'5-02'
p1413
g1267
ssg1219
(dp1414
S'5-02'
p1415
g1269
sS'5-03'
p1416
g1274
sS'5-00'
p1417
g1277
sS'5-01'
p1418
g1282
ssg1224
(dp1419
S'5-00'
p1420
g1279
ssg1229
(dp1421
S'0-00'
p1422
g1289
ssg1234
(dp1423
S'2-01'
p1424
g1292
sS'2-00'
p1425
g1301
ssg1239
(dp1426
S'2-00'
p1427
g1303
ssg1244
(dp1428
S'2-00'
p1429
g1305
ssg1249
(dp1430
S'2-01'
p1431
g1294
ssg1254
(dp1432
S'2-01'
p1433
g1296
ssg1259
(dp1434
S'2-01'
p1435
g1298
sssbsg432
S'jose'
p1436
sg434
I01
sg435
S'B2'
p1437
sa(dp1438
g2
g3
(g4
g5
Ntp1439
Rp1440
(dp1441
g9
(dp1442
S'6-03'
p1443
(dp1444
g13
I6
sg14
g15
(g19
S'\x02\x00\x00\x00\x00\x00\x00\x00'
p1445
tp1446
Rp1447
sg25
I2
sg26
I2
sg27
g28
ssS'0-00'
p1448
(dp1449
g13
I0
sg14
g15
(g19
S'\x05\x00\x00\x00\x00\x00\x00\x00'
p1450
tp1451
Rp1452
sg25
I2
sg26
I0
sg27
g28
ssS'6-01'
p1453
(dp1454
g13
I6
sg14
g15
(g19
S'\x02\x00\x00\x00\x00\x00\x00\x00'
p1455
tp1456
Rp1457
sg25
I2
sg26
I2
sg27
g28
ssS'6-00'
p1458
(dp1459
g13
I6
sg14
g15
(g19
S'\x05\x00\x00\x00\x00\x00\x00\x00'
p1460
tp1461
Rp1462
sg25
I2
sg26
I2
sg27
g59
ssS'6-06'
p1463
(dp1464
g13
I6
sg14
g15
(g19
S'\x02\x00\x00\x00\x00\x00\x00\x00'
p1465
tp1466
Rp1467
sg25
I2
sg26
I2
sg27
g28
ssS'5-00'
p1468
(dp1469
g13
I5
sg14
g15
(g19
S'\x05\x00\x00\x00\x00\x00\x00\x00'
p1470
tp1471
Rp1472
sg25
I1
sg26
I2
sg27
g59
ssS'6-02'
p1473
(dp1474
g13
I6
sg14
g15
(g19
S'\x02\x00\x00\x00\x00\x00\x00\x00'
p1475
tp1476
Rp1477
sg25
I2
sg26
I2
sg27
g28
ssS'8-00'
p1478
(dp1479
g13
I8
sg14
g15
(g19
S'\x05\x00\x00\x00\x00\x00\x00\x00'
p1480
tp1481
Rp1482
sg25
I1
sg26
I3
sg27
NssS'1-00'
p1483
(dp1484
g13
I1
sg14
g15
(g19
S'\x05\x00\x00\x00\x00\x00\x00\x00'
p1485
tp1486
Rp1487
sg25
I0
sg26
I1
sg27
g28
ssS'5-01'
p1488
(dp1489
g13
I5
sg14
g15
(g19
S'\x04\x00\x00\x00\x00\x00\x00\x00'
p1490
tp1491
Rp1492
sg25
I1
sg26
I2
sg27
g28
ssS'7-00'
p1493
(dp1494
g13
I7
sg14
g15
(g19
S'\x05\x00\x00\x00\x00\x00\x00\x00'
p1495
tp1496
Rp1497
sg25
I0
sg26
I3
sg27
NssS'3-00'
p1498
(dp1499
g13
I3
sg14
g15
(g19
S'\x05\x00\x00\x00\x00\x00\x00\x00'
p1500
tp1501
Rp1502
sg25
I2
sg26
I1
sg27
g115
ssS'3-01'
p1503
(dp1504
g13
I3
sg14
g15
(g19
S'\x02\x00\x00\x00\x00\x00\x00\x00'
p1505
tp1506
Rp1507
sg25
I2
sg26
I1
sg27
g28
ssS'3-02'
p1508
(dp1509
g13
I3
sg14
g15
(g19
S'\x04\x00\x00\x00\x00\x00\x00\x00'
p1510
tp1511
Rp1512
sg25
I2
sg26
I1
sg27
g59
ssS'6-04'
p1513
(dp1514
g13
I6
sg14
g15
(g19
S'\x02\x00\x00\x00\x00\x00\x00\x00'
p1515
tp1516
Rp1517
sg25
I2
sg26
I2
sg27
g28
ssS'6-05'
p1518
(dp1519
g13
I6
sg14
g15
(g19
S'\x02\x00\x00\x00\x00\x00\x00\x00'
p1520
tp1521
Rp1522
sg25
I2
sg26
I2
sg27
g28
ssS'2-00'
p1523
(dp1524
g13
I2
sg14
g15
(g19
S'\x05\x00\x00\x00\x00\x00\x00\x00'
p1525
tp1526
Rp1527
sg25
I1
sg26
I1
sg27
g115
ssS'4-00'
p1528
(dp1529
g13
I4
sg14
g15
(g19
S'\x05\x00\x00\x00\x00\x00\x00\x00'
p1530
tp1531
Rp1532
sg25
I0
sg26
I2
sg27
g28
sssg192
g193
sg194
g193
sg195
(dp1533
g1443
(dp1534
S'7-00'
p1535
(dp1536
ssg1448
(dp1537
S'1-00'
p1538
(dp1539
ssg1453
(dp1540
S'7-00'
p1541
(dp1542
ssg1458
(dp1543
S'7-00'
p1544
(dp1545
ssg1463
(dp1546
S'7-00'
p1547
(dp1548
ssg1468
(dp1549
S'6-00'
p1550
(dp1551
sS'6-06'
p1552
(dp1553
sS'6-05'
p1554
(dp1555
sS'6-04'
p1556
(dp1557
ssg1473
(dp1558
S'7-00'
p1559
(dp1560
ssg1478
(dp1561
sg1483
(dp1562
S'2-00'
p1563
(dp1564
ssg1488
(dp1565
S'6-03'
p1566
(dp1567
sS'6-02'
p1568
(dp1569
sS'6-01'
p1570
(dp1571
sS'6-00'
p1572
(dp1573
ssg1493
(dp1574
S'8-00'
p1575
(dp1576
ssg1498
(dp1577
S'4-00'
p1578
(dp1579
ssg1503
(dp1580
S'4-00'
p1581
(dp1582
ssg1508
(dp1583
S'4-00'
p1584
(dp1585
ssg1513
(dp1586
S'7-00'
p1587
(dp1588
ssg1518
(dp1589
S'7-00'
p1590
(dp1591
ssg1523
(dp1592
S'3-00'
p1593
(dp1594
sS'3-01'
p1595
(dp1596
sS'3-02'
p1597
(dp1598
ssg1528
(dp1599
S'5-00'
p1600
(dp1601
sS'5-01'
p1602
(dp1603
sssg338
g1533
sg339
(dp1604
sg341
g193
sg342
g1533
sg343
(dp1605
g1443
(dp1606
S'5-01'
p1607
g1567
ssg1448
(dp1608
sg1453
(dp1609
S'5-01'
p1610
g1571
ssg1458
(dp1611
S'5-00'
p1612
g1551
sS'5-01'
p1613
g1573
ssg1463
(dp1614
S'5-00'
p1615
g1553
ssg1468
(dp1616
S'4-00'
p1617
g1601
ssg1473
(dp1618
S'5-01'
p1619
g1569
ssg1478
(dp1620
S'7-00'
p1621
g1576
ssg1483
(dp1622
S'0-00'
p1623
g1539
ssg1488
(dp1624
S'4-00'
p1625
g1603
ssg1493
(dp1626
S'6-03'
p1627
g1536
sS'6-02'
p1628
g1560
sS'6-01'
p1629
g1542
sS'6-00'
p1630
g1545
sS'6-06'
p1631
g1548
sS'6-05'
p1632
g1591
sS'6-04'
p1633
g1588
ssg1498
(dp1634
S'2-00'
p1635
g1594
ssg1503
(dp1636
S'2-00'
p1637
g1596
ssg1508
(dp1638
S'2-00'
p1639
g1598
ssg1513
(dp1640
S'5-00'
p1641
g1557
ssg1518
(dp1642
S'5-00'
p1643
g1555
ssg1523
(dp1644
S'1-00'
p1645
g1564
ssg1528
(dp1646
S'3-00'
p1647
g1579
sS'3-01'
p1648
g1582
sS'3-02'
p1649
g1585
sssbsg432
S'kensingtonpride'
p1650
sg434
I01
sg435
S'E2'
p1651
sa(dp1652
g2
g3
(g4
g5
Ntp1653
Rp1654
(dp1655
g9
(dp1656
S'0-00'
p1657
(dp1658
g13
I0
sg14
g15
(g19
S'\x05\x00\x00\x00\x00\x00\x00\x00'
p1659
tp1660
Rp1661
sg25
I2
sg26
I0
sg27
NssS'6-01'
p1662
(dp1663
g13
I6
sg14
g15
(g19
S'\x03\x00\x00\x00\x00\x00\x00\x00'
p1664
tp1665
Rp1666
sg25
I2
sg26
I2
sg27
g28
ssS'6-02'
p1667
(dp1668
g13
I6
sg14
g15
(g19
S'\x04\x00\x00\x00\x00\x00\x00\x00'
p1669
tp1670
Rp1671
sg25
I2
sg26
I2
sg27
g59
ssS'5-02'
p1672
(dp1673
g13
I5
sg14
g15
(g19
S'\x03\x00\x00\x00\x00\x00\x00\x00'
p1674
tp1675
Rp1676
sg25
I1
sg26
I2
sg27
g115
ssS'5-00'
p1677
(dp1678
g13
I5
sg14
g15
(g19
S'\x05\x00\x00\x00\x00\x00\x00\x00'
p1679
tp1680
Rp1681
sg25
I1
sg26
I2
sg27
g28
ssS'5-01'
p1682
(dp1683
g13
I5
sg14
g15
(g19
S'\x04\x00\x00\x00\x00\x00\x00\x00'
p1684
tp1685
Rp1686
sg25
I1
sg26
I2
sg27
g115
ssS'8-00'
p1687
(dp1688
g13
I8
sg14
g15
(g19
S'\x05\x00\x00\x00\x00\x00\x00\x00'
p1689
tp1690
Rp1691
sg25
I1
sg26
I3
sg27
NssS'1-00'
p1692
(dp1693
g13
I1
sg14
g15
(g19
S'\x05\x00\x00\x00\x00\x00\x00\x00'
p1694
tp1695
Rp1696
sg25
I0
sg26
I1
sg27
NssS'7-00'
p1697
(dp1698
g13
I7
sg14
g15
(g19
S'\x05\x00\x00\x00\x00\x00\x00\x00'
p1699
tp1700
Rp1701
sg25
I0
sg26
I3
sg27
NssS'3-00'
p1702
(dp1703
g13
I3
sg14
g15
(g19
S'\x05\x00\x00\x00\x00\x00\x00\x00'
p1704
tp1705
Rp1706
sg25
I2
sg26
I1
sg27
g115
ssS'6-00'
p1707
(dp1708
g13
I6
sg14
g15
(g19
S'\x05\x00\x00\x00\x00\x00\x00\x00'
p1709
tp1710
Rp1711
sg25
I2
sg26
I2
sg27
g59
ssS'2-00'
p1712
(dp1713
g13
I2
sg14
g15
(g19
S'\x05\x00\x00\x00\x00\x00\x00\x00'
p1714
tp1715
Rp1716
sg25
I1
sg26
I1
sg27
g115
ssS'4-00'
p1717
(dp1718
g13
I4
sg14
g15
(g19
S'\x05\x00\x00\x00\x00\x00\x00\x00'
p1719
tp1720
Rp1721
sg25
I0
sg26
I2
sg27
g28
sssg192
g193
sg194
g193
sg195
(dp1722
g1657
(dp1723
S'1-00'
p1724
(dp1725
ssg1662
(dp1726
S'7-00'
p1727
(dp1728
ssg1667
(dp1729
S'7-00'
p1730
(dp1731
ssg1672
(dp1732
S'6-00'
p1733
(dp1734
ssg1677
(dp1735
S'6-02'
p1736
(dp1737
sS'6-01'
p1738
(dp1739
sS'6-00'
p1740
(dp1741
ssg1682
(dp1742
S'6-00'
p1743
(dp1744
ssg1687
(dp1745
sg1692
(dp1746
S'2-00'
p1747
(dp1748
ssg1697
(dp1749
S'8-00'
p1750
(dp1751
ssg1702
(dp1752
S'4-00'
p1753
(dp1754
ssg1707
(dp1755
S'7-00'
p1756
(dp1757
ssg1712
(dp1758
S'3-00'
p1759
(dp1760
ssg1717
(dp1761
S'5-02'
p1762
(dp1763
sS'5-00'
p1764
(dp1765
sS'5-01'
p1766
(dp1767
sssg338
g1722
sg339
(dp1768
sg341
g193
sg342
g1722
sg343
(dp1769
g1657
(dp1770
sg1662
(dp1771
S'5-00'
p1772
g1739
ssg1667
(dp1773
S'5-00'
p1774
g1737
ssg1672
(dp1775
S'4-00'
p1776
g1763
ssg1677
(dp1777
S'4-00'
p1778
g1765
ssg1682
(dp1779
S'4-00'
p1780
g1767
ssg1687
(dp1781
S'7-00'
p1782
g1751
ssg1692
(dp1783
S'0-00'
p1784
g1725
ssg1697
(dp1785
S'6-02'
p1786
g1731
sS'6-01'
p1787
g1728
sS'6-00'
p1788
g1757
ssg1702
(dp1789
S'2-00'
p1790
g1760
ssg1707
(dp1791
S'5-02'
p1792
g1734
sS'5-00'
p1793
g1741
sS'5-01'
p1794
g1744
ssg1712
(dp1795
S'1-00'
p1796
g1748
ssg1717
(dp1797
S'3-00'
p1798
g1754
sssbsg432
S'irwin'
p1799
sg434
I01
sg435
S'C13'
p1800
sa(dp1801
g2
g3
(g4
g5
Ntp1802
Rp1803
(dp1804
g9
(dp1805
S'0-00'
p1806
(dp1807
g13
I0
sg14
g15
(g19
S'\x05\x00\x00\x00\x00\x00\x00\x00'
p1808
tp1809
Rp1810
sg25
I2
sg26
I0
sg27
NssS'6-01'
p1811
(dp1812
g13
I6
sg14
g15
(g19
S'\x04\x00\x00\x00\x00\x00\x00\x00'
p1813
tp1814
Rp1815
sg25
I2
sg26
I2
sg27
g28
ssS'6-00'
p1816
(dp1817
g13
I6
sg14
g15
(g19
S'\x05\x00\x00\x00\x00\x00\x00\x00'
p1818
tp1819
Rp1820
sg25
I2
sg26
I2
sg27
g161
ssS'5-02'
p1821
(dp1822
g13
I5
sg14
g15
(g19
S'\x04\x00\x00\x00\x00\x00\x00\x00'
p1823
tp1824
Rp1825
sg25
I1
sg26
I2
sg27
g59
ssS'5-00'
p1826
(dp1827
g13
I5
sg14
g15
(g19
S'\x05\x00\x00\x00\x00\x00\x00\x00'
p1828
tp1829
Rp1830
sg25
I1
sg26
I2
sg27
g59
ssS'5-01'
p1831
(dp1832
g13
I5
sg14
g15
(g19
S'\x04\x00\x00\x00\x00\x00\x00\x00'
p1833
tp1834
Rp1835
sg25
I1
sg26
I2
sg27
g28
ssS'8-00'
p1836
(dp1837
g13
I8
sg14
g15
(g19
S'\x05\x00\x00\x00\x00\x00\x00\x00'
p1838
tp1839
Rp1840
sg25
I1
sg26
I3
sg27
NssS'1-00'
p1841
(dp1842
g13
I1
sg14
g15
(g19
S'\x05\x00\x00\x00\x00\x00\x00\x00'
p1843
tp1844
Rp1845
sg25
I0
sg26
I1
sg27
NssS'7-00'
p1846
(dp1847
g13
I7
sg14
g15
(g19
S'\x05\x00\x00\x00\x00\x00\x00\x00'
p1848
tp1849
Rp1850
sg25
I0
sg26
I3
sg27
NssS'3-00'
p1851
(dp1852
g13
I3
sg14
g15
(g19
S'\x05\x00\x00\x00\x00\x00\x00\x00'
p1853
tp1854
Rp1855
sg25
I2
sg26
I1
sg27
g161
ssS'3-01'
p1856
(dp1857
g13
I3
sg14
g15
(g19
S'\x03\x00\x00\x00\x00\x00\x00\x00'
p1858
tp1859
Rp1860
sg25
I2
sg26
I1
sg27
g59
ssS'2-05'
p1861
(dp1862
g13
I2
sg14
g15
(g19
S'\x01\x00\x00\x00\x00\x00\x00\x00'
p1863
tp1864
Rp1865
sg25
I1
sg26
I1
sg27
g28
ssS'2-04'
p1866
(dp1867
g13
I2
sg14
g15
(g19
S'\x02\x00\x00\x00\x00\x00\x00\x00'
p1868
tp1869
Rp1870
sg25
I1
sg26
I1
sg27
g59
ssS'2-03'
p1871
(dp1872
g13
I2
sg14
g15
(g19
S'\x03\x00\x00\x00\x00\x00\x00\x00'
p1873
tp1874
Rp1875
sg25
I1
sg26
I1
sg27
g115
ssS'2-02'
p1876
(dp1877
g13
I2
sg14
g15
(g19
S'\x02\x00\x00\x00\x00\x00\x00\x00'
p1878
tp1879
Rp1880
sg25
I1
sg26
I1
sg27
g28
ssS'2-01'
p1881
(dp1882
g13
I2
sg14
g15
(g19
S'\x01\x00\x00\x00\x00\x00\x00\x00'
p1883
tp1884
Rp1885
sg25
I1
sg26
I1
sg27
g28
ssS'2-00'
p1886
(dp1887
g13
I2
sg14
g15
(g19
S'\x05\x00\x00\x00\x00\x00\x00\x00'
p1888
tp1889
Rp1890
sg25
I1
sg26
I1
sg27
g59
ssS'4-00'
p1891
(dp1892
g13
I4
sg14
g15
(g19
S'\x05\x00\x00\x00\x00\x00\x00\x00'
p1893
tp1894
Rp1895
sg25
I0
sg26
I2
sg27
g28
sssg192
g193
sg194
g193
sg195
(dp1896
g1806
(dp1897
S'1-00'
p1898
(dp1899
ssg1811
(dp1900
S'7-00'
p1901
(dp1902
ssg1816
(dp1903
S'7-00'
p1904
(dp1905
ssg1821
(dp1906
S'6-01'
p1907
(dp1908
ssg1826
(dp1909
S'6-00'
p1910
(dp1911
ssg1831
(dp1912
S'6-01'
p1913
(dp1914
ssg1836
(dp1915
sg1841
(dp1916
S'2-05'
p1917
(dp1918
sS'2-03'
p1919
(dp1920
sS'2-02'
p1921
(dp1922
sS'2-01'
p1923
(dp1924
sS'2-00'
p1925
(dp1926
ssg1846
(dp1927
S'8-00'
p1928
(dp1929
ssg1851
(dp1930
S'4-00'
p1931
(dp1932
ssg1856
(dp1933
S'4-00'
p1934
(dp1935
ssg1861
(dp1936
S'3-00'
p1937
(dp1938
ssg1866
(dp1939
S'3-01'
p1940
(dp1941
ssg1871
(dp1942
S'3-01'
p1943
(dp1944
ssg1876
(dp1945
S'3-00'
p1946
(dp1947
ssg1881
(dp1948
S'3-00'
p1949
(dp1950
ssg1886
(dp1951
S'3-00'
p1952
(dp1953
ssg1891
(dp1954
S'5-02'
p1955
(dp1956
sS'5-00'
p1957
(dp1958
sS'5-01'
p1959
(dp1960
sssg338
g1896
sg339
(dp1961
sg341
g193
sg342
g1896
sg343
(dp1962
g1806
(dp1963
sg1811
(dp1964
S'5-02'
p1965
g1908
sS'5-01'
p1966
g1914
ssg1816
(dp1967
S'5-00'
p1968
g1911
ssg1821
(dp1969
S'4-00'
p1970
g1956
ssg1826
(dp1971
S'4-00'
p1972
g1958
ssg1831
(dp1973
S'4-00'
p1974
g1960
ssg1836
(dp1975
S'7-00'
p1976
g1929
ssg1841
(dp1977
S'0-00'
p1978
g1899
ssg1846
(dp1979
S'6-01'
p1980
g1902
sS'6-00'
p1981
g1905
ssg1851
(dp1982
S'2-05'
p1983
g1938
sS'2-02'
p1984
g1947
sS'2-01'
p1985
g1950
sS'2-00'
p1986
g1953
ssg1856
(dp1987
S'2-04'
p1988
g1941
sS'2-03'
p1989
g1944
ssg1861
(dp1990
S'1-00'
p1991
g1918
ssg1866
(dp1992
sg1871
(dp1993
S'1-00'
p1994
g1920
ssg1876
(dp1995
S'1-00'
p1996
g1922
ssg1881
(dp1997
S'1-00'
p1998
g1924
ssg1886
(dp1999
S'1-00'
p2000
g1926
ssg1891
(dp2001
S'3-00'
p2002
g1932
sS'3-01'
p2003
g1935
sssbsg432
S'irwin'
p2004
sg434
I00
sg435
S'C14'
p2005
sa(dp2006
g2
g3
(g4
g5
Ntp2007
Rp2008
(dp2009
g9
(dp2010
S'5-04'
p2011
(dp2012
g13
I5
sg14
g15
(g19
S'\x02\x00\x00\x00\x00\x00\x00\x00'
p2013
tp2014
Rp2015
sg25
I1
sg26
I2
sg27
g115
ssS'5-05'
p2016
(dp2017
g13
I5
sg14
g15
(g19
S'\x02\x00\x00\x00\x00\x00\x00\x00'
p2018
tp2019
Rp2020
sg25
I1
sg26
I2
sg27
g59
ssS'5-02'
p2021
(dp2022
g13
I5
sg14
g15
(g19
S'\x04\x00\x00\x00\x00\x00\x00\x00'
p2023
tp2024
Rp2025
sg25
I1
sg26
I2
sg27
g59
ssS'5-03'
p2026
(dp2027
g13
I5
sg14
g15
(g19
S'\x04\x00\x00\x00\x00\x00\x00\x00'
p2028
tp2029
Rp2030
sg25
I1
sg26
I2
sg27
g59
ssS'5-00'
p2031
(dp2032
g13
I5
sg14
g15
(g19
S'\x04\x00\x00\x00\x00\x00\x00\x00'
p2033
tp2034
Rp2035
sg25
I1
sg26
I2
sg27
g28
ssS'5-01'
p2036
(dp2037
g13
I5
sg14
g15
(g19
S'\x04\x00\x00\x00\x00\x00\x00\x00'
p2038
tp2039
Rp2040
sg25
I1
sg26
I2
sg27
g59
ssS'8-00'
p2041
(dp2042
g13
I8
sg14
g15
(g19
S'\x05\x00\x00\x00\x00\x00\x00\x00'
p2043
tp2044
Rp2045
sg25
I1
sg26
I3
sg27
NssS'7-00'
p2046
(dp2047
g13
I7
sg14
g15
(g19
S'\x05\x00\x00\x00\x00\x00\x00\x00'
p2048
tp2049
Rp2050
sg25
I0
sg26
I3
sg27
NssS'0-00'
p2051
(dp2052
g13
I0
sg14
g15
(g19
S'\x05\x00\x00\x00\x00\x00\x00\x00'
p2053
tp2054
Rp2055
sg25
I2
sg26
I0
sg27
NssS'2-02'
p2056
(dp2057
g13
I2
sg14
g15
(g19
S'\x04\x00\x00\x00\x00\x00\x00\x00'
p2058
tp2059
Rp2060
sg25
I1
sg26
I1
sg27
g115
ssS'2-01'
p2061
(dp2062
g13
I2
sg14
g15
(g19
S'\x04\x00\x00\x00\x00\x00\x00\x00'
p2063
tp2064
Rp2065
sg25
I1
sg26
I1
sg27
g115
ssS'2-00'
p2066
(dp2067
g13
I2
sg14
g15
(g19
S'\x04\x00\x00\x00\x00\x00\x00\x00'
p2068
tp2069
Rp2070
sg25
I1
sg26
I1
sg27
g59
ssS'4-01'
p2071
(dp2072
g13
I4
sg14
g15
(g19
S'\x04\x00\x00\x00\x00\x00\x00\x00'
p2073
tp2074
Rp2075
sg25
I0
sg26
I2
sg27
g28
ssS'4-00'
p2076
(dp2077
g13
I4
sg14
g15
(g19
S'\x05\x00\x00\x00\x00\x00\x00\x00'
p2078
tp2079
Rp2080
sg25
I0
sg26
I2
sg27
g28
ssS'4-03'
p2081
(dp2082
g13
I4
sg14
g15
(g19
S'\x03\x00\x00\x00\x00\x00\x00\x00'
p2083
tp2084
Rp2085
sg25
I0
sg26
I2
sg27
g115
ssS'4-02'
p2086
(dp2087
g13
I4
sg14
g15
(g19
S'\x02\x00\x00\x00\x00\x00\x00\x00'
p2088
tp2089
Rp2090
sg25
I0
sg26
I2
sg27
g115
ssS'6-03'
p2091
(dp2092
g13
I6
sg14
g15
(g19
S'\x02\x00\x00\x00\x00\x00\x00\x00'
p2093
tp2094
Rp2095
sg25
I2
sg26
I2
sg27
g161
ssS'6-02'
p2096
(dp2097
g13
I6
sg14
g15
(g19
S'\x04\x00\x00\x00\x00\x00\x00\x00'
p2098
tp2099
Rp2100
sg25
I2
sg26
I2
sg27
g161
ssS'6-01'
p2101
(dp2102
g13
I6
sg14
g15
(g19
S'\x03\x00\x00\x00\x00\x00\x00\x00'
p2103
tp2104
Rp2105
sg25
I2
sg26
I2
sg27
g115
ssS'6-00'
p2106
(dp2107
g13
I6
sg14
g15
(g19
S'\x05\x00\x00\x00\x00\x00\x00\x00'
p2108
tp2109
Rp2110
sg25
I2
sg26
I2
sg27
g59
ssS'1-00'
p2111
(dp2112
g13
I1
sg14
g15
(g19
S'\x05\x00\x00\x00\x00\x00\x00\x00'
p2113
tp2114
Rp2115
sg25
I0
sg26
I1
sg27
g28
ssS'3-00'
p2116
(dp2117
g13
I3
sg14
g15
(g19
S'\x05\x00\x00\x00\x00\x00\x00\x00'
p2118
tp2119
Rp2120
sg25
I2
sg26
I1
sg27
g115
ssS'3-01'
p2121
(dp2122
g13
I3
sg14
g15
(g19
S'\x04\x00\x00\x00\x00\x00\x00\x00'
p2123
tp2124
Rp2125
sg25
I2
sg26
I1
sg27
g59
ssS'3-02'
p2126
(dp2127
g13
I3
sg14
g15
(g19
S'\x04\x00\x00\x00\x00\x00\x00\x00'
p2128
tp2129
Rp2130
sg25
I2
sg26
I1
sg27
g161
ssS'3-03'
p2131
(dp2132
g13
I3
sg14
g15
(g19
S'\x02\x00\x00\x00\x00\x00\x00\x00'
p2133
tp2134
Rp2135
sg25
I2
sg26
I1
sg27
g28
sssg192
g193
sg194
g193
sg195
(dp2136
g2011
(dp2137
S'6-00'
p2138
(dp2139
ssg2016
(dp2140
S'6-00'
p2141
(dp2142
ssg2021
(dp2143
S'6-01'
p2144
(dp2145
sS'6-00'
p2146
(dp2147
ssg2026
(dp2148
S'6-03'
p2149
(dp2150
sS'6-02'
p2151
(dp2152
sS'6-00'
p2153
(dp2154
ssg2031
(dp2155
S'6-00'
p2156
(dp2157
ssg2036
(dp2158
S'6-00'
p2159
(dp2160
ssg2041
(dp2161
sg2046
(dp2162
S'8-00'
p2163
(dp2164
ssg2051
(dp2165
S'1-00'
p2166
(dp2167
ssg2056
(dp2168
S'3-00'
p2169
(dp2170
ssg2061
(dp2171
S'3-00'
p2172
(dp2173
ssg2066
(dp2174
S'3-00'
p2175
(dp2176
sS'3-01'
p2177
(dp2178
sS'3-02'
p2179
(dp2180
sS'3-03'
p2181
(dp2182
ssg2071
(dp2183
S'5-00'
p2184
(dp2185
ssg2076
(dp2186
S'5-04'
p2187
(dp2188
sS'5-05'
p2189
(dp2190
sS'5-02'
p2191
(dp2192
sS'5-03'
p2193
(dp2194
sS'5-00'
p2195
(dp2196
sS'5-01'
p2197
(dp2198
ssg2081
(dp2199
S'5-00'
p2200
(dp2201
ssg2086
(dp2202
S'5-01'
p2203
(dp2204
ssg2091
(dp2205
S'7-00'
p2206
(dp2207
ssg2096
(dp2208
S'7-00'
p2209
(dp2210
ssg2101
(dp2211
S'7-00'
p2212
(dp2213
ssg2106
(dp2214
S'7-00'
p2215
(dp2216
ssg2111
(dp2217
S'2-02'
p2218
(dp2219
sS'2-01'
p2220
(dp2221
sS'2-00'
p2222
(dp2223
ssg2116
(dp2224
S'4-00'
p2225
(dp2226
sS'4-02'
p2227
(dp2228
ssg2121
(dp2229
S'4-00'
p2230
(dp2231
ssg2126
(dp2232
S'4-01'
p2233
(dp2234
ssg2131
(dp2235
S'4-03'
p2236
(dp2237
sssg338
g2136
sg339
(dp2238
sg341
g193
sg342
g2136
sg343
(dp2239
g2011
(dp2240
S'4-00'
p2241
g2188
ssg2016
(dp2242
S'4-00'
p2243
g2190
ssg2021
(dp2244
S'4-00'
p2245
g2192
ssg2026
(dp2246
S'4-00'
p2247
g2194
ssg2031
(dp2248
S'4-01'
p2249
g2185
sS'4-00'
p2250
g2196
sS'4-03'
p2251
g2201
ssg2036
(dp2252
S'4-00'
p2253
g2198
sS'4-02'
p2254
g2204
ssg2041
(dp2255
S'7-00'
p2256
g2164
ssg2046
(dp2257
S'6-03'
p2258
g2207
sS'6-02'
p2259
g2210
sS'6-01'
p2260
g2213
sS'6-00'
p2261
g2216
ssg2051
(dp2262
sg2056
(dp2263
S'1-00'
p2264
g2219
ssg2061
(dp2265
S'1-00'
p2266
g2221
ssg2066
(dp2267
S'1-00'
p2268
g2223
ssg2071
(dp2269
S'3-02'
p2270
g2234
ssg2076
(dp2271
S'3-00'
p2272
g2226
sS'3-01'
p2273
g2231
ssg2081
(dp2274
S'3-03'
p2275
g2237
ssg2086
(dp2276
S'3-00'
p2277
g2228
ssg2091
(dp2278
S'5-03'
p2279
g2150
ssg2096
(dp2280
S'5-03'
p2281
g2152
ssg2101
(dp2282
S'5-02'
p2283
g2145
ssg2106
(dp2284
S'5-04'
p2285
g2139
sS'5-05'
p2286
g2142
sS'5-02'
p2287
g2147
sS'5-03'
p2288
g2154
sS'5-00'
p2289
g2157
sS'5-01'
p2290
g2160
ssg2111
(dp2291
S'0-00'
p2292
g2167
ssg2116
(dp2293
S'2-02'
p2294
g2170
sS'2-01'
p2295
g2173
sS'2-00'
p2296
g2176
ssg2121
(dp2297
S'2-00'
p2298
g2178
ssg2126
(dp2299
S'2-00'
p2300
g2180
ssg2131
(dp2301
S'2-00'
p2302
g2182
sssbsg432
S'kensingtonpride'
p2303
sg434
I01
sg435
S'E6'
p2304
sa(dp2305
g2
g3
(g4
g5
Ntp2306
Rp2307
(dp2308
g9
(dp2309
S'0-00'
p2310
(dp2311
g13
I0
sg14
g15
(g19
S'\x05\x00\x00\x00\x00\x00\x00\x00'
p2312
tp2313
Rp2314
sg25
I2
sg26
I0
sg27
g28
ssS'6-01'
p2315
(dp2316
g13
I6
sg14
g15
(g19
S'\x02\x00\x00\x00\x00\x00\x00\x00'
p2317
tp2318
Rp2319
sg25
I2
sg26
I2
sg27
g28
ssS'6-00'
p2320
(dp2321
g13
I6
sg14
g15
(g19
S'\x05\x00\x00\x00\x00\x00\x00\x00'
p2322
tp2323
Rp2324
sg25
I2
sg26
I2
sg27
g161
ssS'5-02'
p2325
(dp2326
g13
I5
sg14
g15
(g19
S'\x02\x00\x00\x00\x00\x00\x00\x00'
p2327
tp2328
Rp2329
sg25
I1
sg26
I2
sg27
g28
ssS'5-03'
p2330
(dp2331
g13
I5
sg14
g15
(g19
S'\x03\x00\x00\x00\x00\x00\x00\x00'
p2332
tp2333
Rp2334
sg25
I1
sg26
I2
sg27
g28
ssS'5-00'
p2335
(dp2336
g13
I5
sg14
g15
(g19
S'\x05\x00\x00\x00\x00\x00\x00\x00'
p2337
tp2338
Rp2339
sg25
I1
sg26
I2
sg27
g59
ssS'6-02'
p2340
(dp2341
g13
I6
sg14
g15
(g19
S'\x02\x00\x00\x00\x00\x00\x00\x00'
p2342
tp2343
Rp2344
sg25
I2
sg26
I2
sg27
g28
ssS'8-00'
p2345
(dp2346
g13
I8
sg14
g15
(g19
S'\x05\x00\x00\x00\x00\x00\x00\x00'
p2347
tp2348
Rp2349
sg25
I1
sg26
I3
sg27
NssS'1-00'
p2350
(dp2351
g13
I1
sg14
g15
(g19
S'\x05\x00\x00\x00\x00\x00\x00\x00'
p2352
tp2353
Rp2354
sg25
I0
sg26
I1
sg27
g28
ssS'5-01'
p2355
(dp2356
g13
I5
sg14
g15
(g19
S'\x02\x00\x00\x00\x00\x00\x00\x00'
p2357
tp2358
Rp2359
sg25
I1
sg26
I2
sg27
g28
ssS'7-00'
p2360
(dp2361
g13
I7
sg14
g15
(g19
S'\x05\x00\x00\x00\x00\x00\x00\x00'
p2362
tp2363
Rp2364
sg25
I0
sg26
I3
sg27
NssS'3-00'
p2365
(dp2366
g13
I3
sg14
g15
(g19
S'\x05\x00\x00\x00\x00\x00\x00\x00'
p2367
tp2368
Rp2369
sg25
I2
sg26
I1
sg27
g115
ssS'2-00'
p2370
(dp2371
g13
I2
sg14
g15
(g19
S'\x05\x00\x00\x00\x00\x00\x00\x00'
p2372
tp2373
Rp2374
sg25
I1
sg26
I1
sg27
g115
ssS'4-00'
p2375
(dp2376
g13
I4
sg14
g15
(g19
S'\x05\x00\x00\x00\x00\x00\x00\x00'
p2377
tp2378
Rp2379
sg25
I0
sg26
I2
sg27
g28
sssg192
g193
sg194
g193
sg195
(dp2380
g2310
(dp2381
S'1-00'
p2382
(dp2383
ssg2315
(dp2384
S'7-00'
p2385
(dp2386
ssg2320
(dp2387
S'7-00'
p2388
(dp2389
ssg2325
(dp2390
S'6-02'
p2391
(dp2392
ssg2330
(dp2393
S'6-00'
p2394
(dp2395
ssg2335
(dp2396
S'6-01'
p2397
(dp2398
sS'6-00'
p2399
(dp2400
ssg2340
(dp2401
S'7-00'
p2402
(dp2403
ssg2345
(dp2404
sg2350
(dp2405
S'2-00'
p2406
(dp2407
ssg2355
(dp2408
S'6-00'
p2409
(dp2410
ssg2360
(dp2411
S'8-00'
p2412
(dp2413
ssg2365
(dp2414
S'4-00'
p2415
(dp2416
ssg2370
(dp2417
S'3-00'
p2418
(dp2419
ssg2375
(dp2420
S'5-02'
p2421
(dp2422
sS'5-03'
p2423
(dp2424
sS'5-00'
p2425
(dp2426
sS'5-01'
p2427
(dp2428
sssg338
g2380
sg339
(dp2429
sg341
g193
sg342
g2380
sg343
(dp2430
g2310
(dp2431
sg2315
(dp2432
S'5-00'
p2433
g2398
ssg2320
(dp2434
S'5-03'
p2435
g2395
sS'5-00'
p2436
g2400
sS'5-01'
p2437
g2410
ssg2325
(dp2438
S'4-00'
p2439
g2422
ssg2330
(dp2440
S'4-00'
p2441
g2424
ssg2335
(dp2442
S'4-00'
p2443
g2426
ssg2340
(dp2444
S'5-02'
p2445
g2392
ssg2345
(dp2446
S'7-00'
p2447
g2413
ssg2350
(dp2448
S'0-00'
p2449
g2383
ssg2355
(dp2450
S'4-00'
p2451
g2428
ssg2360
(dp2452
S'6-02'
p2453
g2403
sS'6-01'
p2454
g2386
sS'6-00'
p2455
g2389
ssg2365
(dp2456
S'2-00'
p2457
g2419
ssg2370
(dp2458
S'1-00'
p2459
g2407
ssg2375
(dp2460
S'3-00'
p2461
g2416
sssbsg432
S'kensingtonpride'
p2462
sg434
I00
sg435
S'E4'
p2463
sa(dp2464
g2
g3
(g4
g5
Ntp2465
Rp2466
(dp2467
g9
(dp2468
S'6-03'
p2469
(dp2470
g13
I6
sg14
g15
(g19
S'\x03\x00\x00\x00\x00\x00\x00\x00'
p2471
tp2472
Rp2473
sg25
I2
sg26
I2
sg27
g28
ssS'0-00'
p2474
(dp2475
g13
I0
sg14
g15
(g19
S'\x05\x00\x00\x00\x00\x00\x00\x00'
p2476
tp2477
Rp2478
sg25
I2
sg26
I0
sg27
NssS'6-01'
p2479
(dp2480
g13
I6
sg14
g15
(g19
S'\x03\x00\x00\x00\x00\x00\x00\x00'
p2481
tp2482
Rp2483
sg25
I2
sg26
I2
sg27
g28
ssS'6-00'
p2484
(dp2485
g13
I6
sg14
g15
(g19
S'\x05\x00\x00\x00\x00\x00\x00\x00'
p2486
tp2487
Rp2488
sg25
I2
sg26
I2
sg27
g59
ssS'6-06'
p2489
(dp2490
g13
I6
sg14
g15
(g19
S'\x04\x00\x00\x00\x00\x00\x00\x00'
p2491
tp2492
Rp2493
sg25
I2
sg26
I2
sg27
g59
ssS'5-00'
p2494
(dp2495
g13
I5
sg14
g15
(g19
S'\x05\x00\x00\x00\x00\x00\x00\x00'
p2496
tp2497
Rp2498
sg25
I1
sg26
I2
sg27
g28
ssS'6-02'
p2499
(dp2500
g13
I6
sg14
g15
(g19
S'\x02\x00\x00\x00\x00\x00\x00\x00'
p2501
tp2502
Rp2503
sg25
I2
sg26
I2
sg27
g28
ssS'8-00'
p2504
(dp2505
g13
I8
sg14
g15
(g19
S'\x05\x00\x00\x00\x00\x00\x00\x00'
p2506
tp2507
Rp2508
sg25
I1
sg26
I3
sg27
NssS'1-00'
p2509
(dp2510
g13
I1
sg14
g15
(g19
S'\x05\x00\x00\x00\x00\x00\x00\x00'
p2511
tp2512
Rp2513
sg25
I0
sg26
I1
sg27
g28
ssS'5-01'
p2514
(dp2515
g13
I5
sg14
g15
(g19
S'\x04\x00\x00\x00\x00\x00\x00\x00'
p2516
tp2517
Rp2518
sg25
I1
sg26
I2
sg27
g59
ssS'7-00'
p2519
(dp2520
g13
I7
sg14
g15
(g19
S'\x05\x00\x00\x00\x00\x00\x00\x00'
p2521
tp2522
Rp2523
sg25
I0
sg26
I3
sg27
NssS'3-00'
p2524
(dp2525
g13
I3
sg14
g15
(g19
S'\x04\x00\x00\x00\x00\x00\x00\x00'
p2526
tp2527
Rp2528
sg25
I2
sg26
I1
sg27
g59
ssS'3-01'
p2529
(dp2530
g13
I3
sg14
g15
(g19
S'\x04\x00\x00\x00\x00\x00\x00\x00'
p2531
tp2532
Rp2533
sg25
I2
sg26
I1
sg27
g115
ssS'3-02'
p2534
(dp2535
g13
I3
sg14
g15
(g19
S'\x04\x00\x00\x00\x00\x00\x00\x00'
p2536
tp2537
Rp2538
sg25
I2
sg26
I1
sg27
g115
ssS'3-03'
p2539
(dp2540
g13
I3
sg14
g15
(g19
S'\x04\x00\x00\x00\x00\x00\x00\x00'
p2541
tp2542
Rp2543
sg25
I2
sg26
I1
sg27
g115
ssS'3-04'
p2544
(dp2545
g13
I3
sg14
g15
(g19
S'\x02\x00\x00\x00\x00\x00\x00\x00'
p2546
tp2547
Rp2548
sg25
I2
sg26
I1
sg27
g28
ssS'2-01'
p2549
(dp2550
g13
I2
sg14
g15
(g19
S'\x02\x00\x00\x00\x00\x00\x00\x00'
p2551
tp2552
Rp2553
sg25
I1
sg26
I1
sg27
g28
ssS'6-04'
p2554
(dp2555
g13
I6
sg14
g15
(g19
S'\x03\x00\x00\x00\x00\x00\x00\x00'
p2556
tp2557
Rp2558
sg25
I2
sg26
I2
sg27
g28
ssS'6-05'
p2559
(dp2560
g13
I6
sg14
g15
(g19
S'\x02\x00\x00\x00\x00\x00\x00\x00'
p2561
tp2562
Rp2563
sg25
I2
sg26
I2
sg27
g28
ssS'2-00'
p2564
(dp2565
g13
I2
sg14
g15
(g19
S'\x05\x00\x00\x00\x00\x00\x00\x00'
p2566
tp2567
Rp2568
sg25
I1
sg26
I1
sg27
g115
ssS'4-00'
p2569
(dp2570
g13
I4
sg14
g15
(g19
S'\x05\x00\x00\x00\x00\x00\x00\x00'
p2571
tp2572
Rp2573
sg25
I0
sg26
I2
sg27
g28
sssg192
g193
sg194
g193
sg195
(dp2574
g2469
(dp2575
S'7-00'
p2576
(dp2577
ssg2474
(dp2578
S'1-00'
p2579
(dp2580
ssg2479
(dp2581
S'7-00'
p2582
(dp2583
ssg2484
(dp2584
S'7-00'
p2585
(dp2586
ssg2489
(dp2587
S'7-00'
p2588
(dp2589
ssg2494
(dp2590
S'6-03'
p2591
(dp2592
sS'6-02'
p2593
(dp2594
sS'6-01'
p2595
(dp2596
sS'6-00'
p2597
(dp2598
sS'6-05'
p2599
(dp2600
sS'6-04'
p2601
(dp2602
ssg2499
(dp2603
S'7-00'
p2604
(dp2605
ssg2504
(dp2606
sg2509
(dp2607
S'2-01'
p2608
(dp2609
sS'2-00'
p2610
(dp2611
ssg2514
(dp2612
S'6-00'
p2613
(dp2614
sS'6-06'
p2615
(dp2616
ssg2519
(dp2617
S'8-00'
p2618
(dp2619
ssg2524
(dp2620
S'4-00'
p2621
(dp2622
ssg2529
(dp2623
S'4-00'
p2624
(dp2625
ssg2534
(dp2626
S'4-00'
p2627
(dp2628
ssg2539
(dp2629
S'4-00'
p2630
(dp2631
ssg2544
(dp2632
S'4-00'
p2633
(dp2634
ssg2549
(dp2635
S'3-00'
p2636
(dp2637
ssg2554
(dp2638
S'7-00'
p2639
(dp2640
ssg2559
(dp2641
S'7-00'
p2642
(dp2643
ssg2564
(dp2644
S'3-00'
p2645
(dp2646
sS'3-01'
p2647
(dp2648
sS'3-02'
p2649
(dp2650
sS'3-03'
p2651
(dp2652
sS'3-04'
p2653
(dp2654
ssg2569
(dp2655
S'5-00'
p2656
(dp2657
sS'5-01'
p2658
(dp2659
sssg338
g2574
sg339
(dp2660
sg341
g193
sg342
g2574
sg343
(dp2661
g2469
(dp2662
S'5-00'
p2663
g2592
ssg2474
(dp2664
sg2479
(dp2665
S'5-00'
p2666
g2596
ssg2484
(dp2667
S'5-00'
p2668
g2598
sS'5-01'
p2669
g2614
ssg2489
(dp2670
S'5-01'
p2671
g2616
ssg2494
(dp2672
S'4-00'
p2673
g2657
ssg2499
(dp2674
S'5-00'
p2675
g2594
ssg2504
(dp2676
S'7-00'
p2677
g2619
ssg2509
(dp2678
S'0-00'
p2679
g2580
ssg2514
(dp2680
S'4-00'
p2681
g2659
ssg2519
(dp2682
S'6-03'
p2683
g2577
sS'6-02'
p2684
g2605
sS'6-01'
p2685
g2583
sS'6-00'
p2686
g2586
sS'6-06'
p2687
g2589
sS'6-05'
p2688
g2643
sS'6-04'
p2689
g2640
ssg2524
(dp2690
S'2-01'
p2691
g2637
sS'2-00'
p2692
g2646
ssg2529
(dp2693
S'2-00'
p2694
g2648
ssg2534
(dp2695
S'2-00'
p2696
g2650
ssg2539
(dp2697
S'2-00'
p2698
g2652
ssg2544
(dp2699
S'2-00'
p2700
g2654
ssg2549
(dp2701
S'1-00'
p2702
g2609
ssg2554
(dp2703
S'5-00'
p2704
g2602
ssg2559
(dp2705
S'5-00'
p2706
g2600
ssg2564
(dp2707
S'1-00'
p2708
g2611
ssg2569
(dp2709
S'3-00'
p2710
g2622
sS'3-01'
p2711
g2625
sS'3-02'
p2712
g2628
sS'3-03'
p2713
g2631
sS'3-04'
p2714
g2634
sssbsg432
S'cogshall'
p2715
sg434
I01
sg435
S'F2'
p2716
sa(dp2717
g2
g3
(g4
g5
Ntp2718
Rp2719
(dp2720
g9
(dp2721
S'0-00'
p2722
(dp2723
g13
I0
sg14
g15
(g19
S'\x05\x00\x00\x00\x00\x00\x00\x00'
p2724
tp2725
Rp2726
sg25
I2
sg26
I0
sg27
g28
ssS'6-01'
p2727
(dp2728
g13
I6
sg14
g15
(g19
S'\x02\x00\x00\x00\x00\x00\x00\x00'
p2729
tp2730
Rp2731
sg25
I2
sg26
I2
sg27
g28
ssS'6-00'
p2732
(dp2733
g13
I6
sg14
g15
(g19
S'\x05\x00\x00\x00\x00\x00\x00\x00'
p2734
tp2735
Rp2736
sg25
I2
sg26
I2
sg27
g59
ssS'5-02'
p2737
(dp2738
g13
I5
sg14
g15
(g19
S'\x02\x00\x00\x00\x00\x00\x00\x00'
p2739
tp2740
Rp2741
sg25
I1
sg26
I2
sg27
g59
ssS'5-00'
p2742
(dp2743
g13
I5
sg14
g15
(g19
S'\x05\x00\x00\x00\x00\x00\x00\x00'
p2744
tp2745
Rp2746
sg25
I1
sg26
I2
sg27
g28
ssS'5-01'
p2747
(dp2748
g13
I5
sg14
g15
(g19
S'\x02\x00\x00\x00\x00\x00\x00\x00'
p2749
tp2750
Rp2751
sg25
I1
sg26
I2
sg27
g115
ssS'8-00'
p2752
(dp2753
g13
I8
sg14
g15
(g19
S'\x05\x00\x00\x00\x00\x00\x00\x00'
p2754
tp2755
Rp2756
sg25
I1
sg26
I3
sg27
NssS'1-00'
p2757
(dp2758
g13
I1
sg14
g15
(g19
S'\x05\x00\x00\x00\x00\x00\x00\x00'
p2759
tp2760
Rp2761
sg25
I0
sg26
I1
sg27
g28
ssS'7-00'
p2762
(dp2763
g13
I7
sg14
g15
(g19
S'\x05\x00\x00\x00\x00\x00\x00\x00'
p2764
tp2765
Rp2766
sg25
I0
sg26
I3
sg27
NssS'3-00'
p2767
(dp2768
g13
I3
sg14
g15
(g19
S'\x05\x00\x00\x00\x00\x00\x00\x00'
p2769
tp2770
Rp2771
sg25
I2
sg26
I1
sg27
g115
ssS'2-00'
p2772
(dp2773
g13
I2
sg14
g15
(g19
S'\x05\x00\x00\x00\x00\x00\x00\x00'
p2774
tp2775
Rp2776
sg25
I1
sg26
I1
sg27
g115
ssS'4-00'
p2777
(dp2778
g13
I4
sg14
g15
(g19
S'\x05\x00\x00\x00\x00\x00\x00\x00'
p2779
tp2780
Rp2781
sg25
I0
sg26
I2
sg27
g28
sssg192
g193
sg194
g193
sg195
(dp2782
g2722
(dp2783
S'1-00'
p2784
(dp2785
ssg2727
(dp2786
S'7-00'
p2787
(dp2788
ssg2732
(dp2789
S'7-00'
p2790
(dp2791
ssg2737
(dp2792
S'6-00'
p2793
(dp2794
ssg2742
(dp2795
S'6-01'
p2796
(dp2797
sS'6-00'
p2798
(dp2799
ssg2747
(dp2800
S'6-00'
p2801
(dp2802
ssg2752
(dp2803
sg2757
(dp2804
S'2-00'
p2805
(dp2806
ssg2762
(dp2807
S'8-00'
p2808
(dp2809
ssg2767
(dp2810
S'4-00'
p2811
(dp2812
ssg2772
(dp2813
S'3-00'
p2814
(dp2815
ssg2777
(dp2816
S'5-02'
p2817
(dp2818
sS'5-00'
p2819
(dp2820
sS'5-01'
p2821
(dp2822
sssg338
g2782
sg339
(dp2823
sg341
g193
sg342
g2782
sg343
(dp2824
g2722
(dp2825
sg2727
(dp2826
S'5-00'
p2827
g2797
ssg2732
(dp2828
S'5-02'
p2829
g2794
sS'5-00'
p2830
g2799
sS'5-01'
p2831
g2802
ssg2737
(dp2832
S'4-00'
p2833
g2818
ssg2742
(dp2834
S'4-00'
p2835
g2820
ssg2747
(dp2836
S'4-00'
p2837
g2822
ssg2752
(dp2838
S'7-00'
p2839
g2809
ssg2757
(dp2840
S'0-00'
p2841
g2785
ssg2762
(dp2842
S'6-01'
p2843
g2788
sS'6-00'
p2844
g2791
ssg2767
(dp2845
S'2-00'
p2846
g2815
ssg2772
(dp2847
S'1-00'
p2848
g2806
ssg2777
(dp2849
S'3-00'
p2850
g2812
sssbsg432
S'irwin'
p2851
sg434
I01
sg435
S'G1'
p2852
sa(dp2853
g2
g3
(g4
g5
Ntp2854
Rp2855
(dp2856
g9
(dp2857
S'5-00'
p2858
(dp2859
g13
I5
sg14
g15
(g19
S'\x05\x00\x00\x00\x00\x00\x00\x00'
p2860
tp2861
Rp2862
sg25
I1
sg26
I2
sg27
g59
ssS'5-01'
p2863
(dp2864
g13
I5
sg14
g15
(g19
S'\x02\x00\x00\x00\x00\x00\x00\x00'
p2865
tp2866
Rp2867
sg25
I1
sg26
I2
sg27
g28
ssS'8-00'
p2868
(dp2869
g13
I8
sg14
g15
(g19
S'\x05\x00\x00\x00\x00\x00\x00\x00'
p2870
tp2871
Rp2872
sg25
I1
sg26
I3
sg27
NssS'7-00'
p2873
(dp2874
g13
I7
sg14
g15
(g19
S'\x05\x00\x00\x00\x00\x00\x00\x00'
p2875
tp2876
Rp2877
sg25
I0
sg26
I3
sg27
NssS'0-00'
p2878
(dp2879
g13
I0
sg14
g15
(g19
S'\x05\x00\x00\x00\x00\x00\x00\x00'
p2880
tp2881
Rp2882
sg25
I2
sg26
I0
sg27
g28
ssS'2-03'
p2883
(dp2884
g13
I2
sg14
g15
(g19
S'\x01\x00\x00\x00\x00\x00\x00\x00'
p2885
tp2886
Rp2887
sg25
I1
sg26
I1
sg27
g28
ssS'2-02'
p2888
(dp2889
g13
I2
sg14
g15
(g19
S'\x02\x00\x00\x00\x00\x00\x00\x00'
p2890
tp2891
Rp2892
sg25
I1
sg26
I1
sg27
g28
ssS'2-01'
p2893
(dp2894
g13
I2
sg14
g15
(g19
S'\x03\x00\x00\x00\x00\x00\x00\x00'
p2895
tp2896
Rp2897
sg25
I1
sg26
I1
sg27
g59
ssS'2-00'
p2898
(dp2899
g13
I2
sg14
g15
(g19
S'\x05\x00\x00\x00\x00\x00\x00\x00'
p2900
tp2901
Rp2902
sg25
I1
sg26
I1
sg27
g59
ssS'4-00'
p2903
(dp2904
g13
I4
sg14
g15
(g19
S'\x05\x00\x00\x00\x00\x00\x00\x00'
p2905
tp2906
Rp2907
sg25
I0
sg26
I2
sg27
g954
ssS'6-03'
p2908
(dp2909
g13
I6
sg14
g15
(g19
S'\x03\x00\x00\x00\x00\x00\x00\x00'
p2910
tp2911
Rp2912
sg25
I2
sg26
I2
sg27
g28
ssS'6-02'
p2913
(dp2914
g13
I6
sg14
g15
(g19
S'\x02\x00\x00\x00\x00\x00\x00\x00'
p2915
tp2916
Rp2917
sg25
I2
sg26
I2
sg27
g28
ssS'6-01'
p2918
(dp2919
g13
I6
sg14
g15
(g19
S'\x02\x00\x00\x00\x00\x00\x00\x00'
p2920
tp2921
Rp2922
sg25
I2
sg26
I2
sg27
g59
ssS'6-00'
p2923
(dp2924
g13
I6
sg14
g15
(g19
S'\x05\x00\x00\x00\x00\x00\x00\x00'
p2925
tp2926
Rp2927
sg25
I2
sg26
I2
sg27
g161
ssS'6-05'
p2928
(dp2929
g13
I6
sg14
g15
(g19
S'\x03\x00\x00\x00\x00\x00\x00\x00'
p2930
tp2931
Rp2932
sg25
I2
sg26
I2
sg27
g115
ssS'6-04'
p2933
(dp2934
g13
I6
sg14
g15
(g19
S'\x02\x00\x00\x00\x00\x00\x00\x00'
p2935
tp2936
Rp2937
sg25
I2
sg26
I2
sg27
g59
ssS'1-00'
p2938
(dp2939
g13
I1
sg14
g15
(g19
S'\x05\x00\x00\x00\x00\x00\x00\x00'
p2940
tp2941
Rp2942
sg25
I0
sg26
I1
sg27
g28
ssS'3-00'
p2943
(dp2944
g13
I3
sg14
g15
(g19
S'\x04\x00\x00\x00\x00\x00\x00\x00'
p2945
tp2946
Rp2947
sg25
I2
sg26
I1
sg27
g161
ssS'3-01'
p2948
(dp2949
g13
I3
sg14
g15
(g19
S'\x04\x00\x00\x00\x00\x00\x00\x00'
p2950
tp2951
Rp2952
sg25
I2
sg26
I1
sg27
g59
ssS'3-02'
p2953
(dp2954
g13
I3
sg14
g15
(g19
S'\x02\x00\x00\x00\x00\x00\x00\x00'
p2955
tp2956
Rp2957
sg25
I2
sg26
I1
sg27
g59
ssS'3-03'
p2958
(dp2959
g13
I3
sg14
g15
(g19
S'\x03\x00\x00\x00\x00\x00\x00\x00'
p2960
tp2961
Rp2962
sg25
I2
sg26
I1
sg27
g59
ssS'3-04'
p2963
(dp2964
g13
I3
sg14
g15
(g19
S'\x01\x00\x00\x00\x00\x00\x00\x00'
p2965
tp2966
Rp2967
sg25
I2
sg26
I1
sg27
g28
ssS'3-05'
p2968
(dp2969
g13
I3
sg14
g15
(g19
S'\x01\x00\x00\x00\x00\x00\x00\x00'
p2970
tp2971
Rp2972
sg25
I2
sg26
I1
sg27
g28
ssS'3-06'
p2973
(dp2974
g13
I3
sg14
g15
(g19
S'\x02\x00\x00\x00\x00\x00\x00\x00'
p2975
tp2976
Rp2977
sg25
I2
sg26
I1
sg27
g161
ssS'3-07'
p2978
(dp2979
g13
I3
sg14
g15
(g19
S'\x04\x00\x00\x00\x00\x00\x00\x00'
p2980
tp2981
Rp2982
sg25
I2
sg26
I1
sg27
g161
ssS'3-08'
p2983
(dp2984
g13
I3
sg14
g15
(g19
S'\x01\x00\x00\x00\x00\x00\x00\x00'
p2985
tp2986
Rp2987
sg25
I2
sg26
I1
sg27
g28
ssS'3-09'
p2988
(dp2989
g13
I3
sg14
g15
(g19
S'\x02\x00\x00\x00\x00\x00\x00\x00'
p2990
tp2991
Rp2992
sg25
I2
sg26
I1
sg27
g115
sssg192
g193
sg194
g193
sg195
(dp2993
g2858
(dp2994
S'6-03'
p2995
(dp2996
sS'6-01'
p2997
(dp2998
sS'6-00'
p2999
(dp3000
sS'6-05'
p3001
(dp3002
sS'6-04'
p3003
(dp3004
ssg2863
(dp3005
S'6-02'
p3006
(dp3007
ssg2868
(dp3008
sg2873
(dp3009
S'8-00'
p3010
(dp3011
ssg2878
(dp3012
S'1-00'
p3013
(dp3014
ssg2883
(dp3015
S'3-05'
p3016
(dp3017
ssg2888
(dp3018
S'3-02'
p3019
(dp3020
ssg2893
(dp3021
S'3-00'
p3022
(dp3023
sS'3-04'
p3024
(dp3025
ssg2898
(dp3026
S'3-00'
p3027
(dp3028
sS'3-01'
p3029
(dp3030
sS'3-03'
p3031
(dp3032
sS'3-06'
p3033
(dp3034
sS'3-07'
p3035
(dp3036
sS'3-08'
p3037
(dp3038
sS'3-09'
p3039
(dp3040
ssg2903
(dp3041
S'5-00'
p3042
(dp3043
sS'5-01'
p3044
(dp3045
ssg2908
(dp3046
S'7-00'
p3047
(dp3048
ssg2913
(dp3049
S'7-00'
p3050
(dp3051
ssg2918
(dp3052
S'7-00'
p3053
(dp3054
ssg2923
(dp3055
S'7-00'
p3056
(dp3057
ssg2928
(dp3058
S'7-00'
p3059
(dp3060
ssg2933
(dp3061
S'7-00'
p3062
(dp3063
ssg2938
(dp3064
S'2-03'
p3065
(dp3066
sS'2-02'
p3067
(dp3068
sS'2-01'
p3069
(dp3070
sS'2-00'
p3071
(dp3072
ssg2943
(dp3073
S'4-00'
p3074
(dp3075
ssg2948
(dp3076
S'4-00'
p3077
(dp3078
ssg2953
(dp3079
S'4-00'
p3080
(dp3081
ssg2958
(dp3082
S'4-00'
p3083
(dp3084
ssg2963
(dp3085
S'4-00'
p3086
(dp3087
ssg2968
(dp3088
S'4-00'
p3089
(dp3090
ssg2973
(dp3091
S'4-00'
p3092
(dp3093
ssg2978
(dp3094
S'4-00'
p3095
(dp3096
ssg2983
(dp3097
S'4-00'
p3098
(dp3099
ssg2988
(dp3100
S'4-00'
p3101
(dp3102
sssg338
g2993
sg339
(dp3103
sg341
g193
sg342
g2993
sg343
(dp3104
g2858
(dp3105
S'4-00'
p3106
g3043
ssg2863
(dp3107
S'4-00'
p3108
g3045
ssg2868
(dp3109
S'7-00'
p3110
g3011
ssg2873
(dp3111
S'6-03'
p3112
g3048
sS'6-02'
p3113
g3051
sS'6-01'
p3114
g3054
sS'6-00'
p3115
g3057
sS'6-05'
p3116
g3060
sS'6-04'
p3117
g3063
ssg2878
(dp3118
sg2883
(dp3119
S'1-00'
p3120
g3066
ssg2888
(dp3121
S'1-00'
p3122
g3068
ssg2893
(dp3123
S'1-00'
p3124
g3070
ssg2898
(dp3125
S'1-00'
p3126
g3072
ssg2903
(dp3127
S'3-00'
p3128
g3075
sS'3-01'
p3129
g3078
sS'3-02'
p3130
g3081
sS'3-03'
p3131
g3084
sS'3-04'
p3132
g3087
sS'3-05'
p3133
g3090
sS'3-06'
p3134
g3093
sS'3-07'
p3135
g3096
sS'3-08'
p3136
g3099
sS'3-09'
p3137
g3102
ssg2908
(dp3138
S'5-00'
p3139
g2996
ssg2913
(dp3140
S'5-01'
p3141
g3007
ssg2918
(dp3142
S'5-00'
p3143
g2998
ssg2923
(dp3144
S'5-00'
p3145
g3000
ssg2928
(dp3146
S'5-00'
p3147
g3002
ssg2933
(dp3148
S'5-00'
p3149
g3004
ssg2938
(dp3150
S'0-00'
p3151
g3014
ssg2943
(dp3152
S'2-01'
p3153
g3023
sS'2-00'
p3154
g3028
ssg2948
(dp3155
S'2-00'
p3156
g3030
ssg2953
(dp3157
S'2-02'
p3158
g3020
ssg2958
(dp3159
S'2-00'
p3160
g3032
ssg2963
(dp3161
S'2-01'
p3162
g3025
ssg2968
(dp3163
S'2-03'
p3164
g3017
ssg2973
(dp3165
S'2-00'
p3166
g3034
ssg2978
(dp3167
S'2-00'
p3168
g3036
ssg2983
(dp3169
S'2-00'
p3170
g3038
ssg2988
(dp3171
S'2-00'
p3172
g3040
sssbsg432
S'irwin'
p3173
sg434
I00
sg435
S'G2'
p3174
sa(dp3175
g2
g3
(g4
g5
Ntp3176
Rp3177
(dp3178
g9
(dp3179
S'0-00'
p3180
(dp3181
g13
I0
sg14
g15
(g19
S'\x05\x00\x00\x00\x00\x00\x00\x00'
p3182
tp3183
Rp3184
sg25
I2
sg26
I0
sg27
NssS'6-01'
p3185
(dp3186
g13
I6
sg14
g15
(g19
S'\x04\x00\x00\x00\x00\x00\x00\x00'
p3187
tp3188
Rp3189
sg25
I2
sg26
I2
sg27
g59
ssS'6-00'
p3190
(dp3191
g13
I6
sg14
g15
(g19
S'\x04\x00\x00\x00\x00\x00\x00\x00'
p3192
tp3193
Rp3194
sg25
I2
sg26
I2
sg27
g161
ssS'5-00'
p3195
(dp3196
g13
I5
sg14
g15
(g19
S'\x05\x00\x00\x00\x00\x00\x00\x00'
p3197
tp3198
Rp3199
sg25
I1
sg26
I2
sg27
g59
ssS'5-01'
p3200
(dp3201
g13
I5
sg14
g15
(g19
S'\x04\x00\x00\x00\x00\x00\x00\x00'
p3202
tp3203
Rp3204
sg25
I1
sg26
I2
sg27
g115
ssS'8-00'
p3205
(dp3206
g13
I8
sg14
g15
(g19
S'\x05\x00\x00\x00\x00\x00\x00\x00'
p3207
tp3208
Rp3209
sg25
I1
sg26
I3
sg27
NssS'1-00'
p3210
(dp3211
g13
I1
sg14
g15
(g19
S'\x05\x00\x00\x00\x00\x00\x00\x00'
p3212
tp3213
Rp3214
sg25
I0
sg26
I1
sg27
NssS'7-00'
p3215
(dp3216
g13
I7
sg14
g15
(g19
S'\x05\x00\x00\x00\x00\x00\x00\x00'
p3217
tp3218
Rp3219
sg25
I0
sg26
I3
sg27
NssS'3-00'
p3220
(dp3221
g13
I3
sg14
g15
(g19
S'\x05\x00\x00\x00\x00\x00\x00\x00'
p3222
tp3223
Rp3224
sg25
I2
sg26
I1
sg27
g115
ssS'2-00'
p3225
(dp3226
g13
I2
sg14
g15
(g19
S'\x05\x00\x00\x00\x00\x00\x00\x00'
p3227
tp3228
Rp3229
sg25
I1
sg26
I1
sg27
g115
ssS'4-00'
p3230
(dp3231
g13
I4
sg14
g15
(g19
S'\x05\x00\x00\x00\x00\x00\x00\x00'
p3232
tp3233
Rp3234
sg25
I0
sg26
I2
sg27
g954
sssg192
g193
sg194
g193
sg195
(dp3235
g3180
(dp3236
S'1-00'
p3237
(dp3238
ssg3185
(dp3239
S'7-00'
p3240
(dp3241
ssg3190
(dp3242
S'7-00'
p3243
(dp3244
ssg3195
(dp3245
S'6-01'
p3246
(dp3247
sS'6-00'
p3248
(dp3249
ssg3200
(dp3250
S'6-01'
p3251
(dp3252
ssg3205
(dp3253
sg3210
(dp3254
S'2-00'
p3255
(dp3256
ssg3215
(dp3257
S'8-00'
p3258
(dp3259
ssg3220
(dp3260
S'4-00'
p3261
(dp3262
ssg3225
(dp3263
S'3-00'
p3264
(dp3265
ssg3230
(dp3266
S'5-00'
p3267
(dp3268
sS'5-01'
p3269
(dp3270
sssg338
g3235
sg339
(dp3271
sg341
g193
sg342
g3235
sg343
(dp3272
g3180
(dp3273
sg3185
(dp3274
S'5-00'
p3275
g3247
sS'5-01'
p3276
g3252
ssg3190
(dp3277
S'5-00'
p3278
g3249
ssg3195
(dp3279
S'4-00'
p3280
g3268
ssg3200
(dp3281
S'4-00'
p3282
g3270
ssg3205
(dp3283
S'7-00'
p3284
g3259
ssg3210
(dp3285
S'0-00'
p3286
g3238
ssg3215
(dp3287
S'6-01'
p3288
g3241
sS'6-00'
p3289
g3244
ssg3220
(dp3290
S'2-00'
p3291
g3265
ssg3225
(dp3292
S'1-00'
p3293
g3256
ssg3230
(dp3294
S'3-00'
p3295
g3262
sssbsg432
S'irwin'
p3296
sg434
I01
sg435
S'G5'
p3297
sa(dp3298
g2
g3
(g4
g5
Ntp3299
Rp3300
(dp3301
g9
(dp3302
S'5-06'
p3303
(dp3304
g13
I5
sg14
g15
(g19
S'\x02\x00\x00\x00\x00\x00\x00\x00'
p3305
tp3306
Rp3307
sg25
I1
sg26
I2
sg27
g115
ssS'5-07'
p3308
(dp3309
g13
I5
sg14
g15
(g19
S'\x04\x00\x00\x00\x00\x00\x00\x00'
p3310
tp3311
Rp3312
sg25
I1
sg26
I2
sg27
g59
ssS'5-04'
p3313
(dp3314
g13
I5
sg14
g15
(g19
S'\x02\x00\x00\x00\x00\x00\x00\x00'
p3315
tp3316
Rp3317
sg25
I1
sg26
I2
sg27
g115
ssS'5-05'
p3318
(dp3319
g13
I5
sg14
g15
(g19
S'\x03\x00\x00\x00\x00\x00\x00\x00'
p3320
tp3321
Rp3322
sg25
I1
sg26
I2
sg27
g115
ssS'5-02'
p3323
(dp3324
g13
I5
sg14
g15
(g19
S'\x02\x00\x00\x00\x00\x00\x00\x00'
p3325
tp3326
Rp3327
sg25
I1
sg26
I2
sg27
g59
ssS'5-03'
p3328
(dp3329
g13
I5
sg14
g15
(g19
S'\x03\x00\x00\x00\x00\x00\x00\x00'
p3330
tp3331
Rp3332
sg25
I1
sg26
I2
sg27
g59
ssS'5-00'
p3333
(dp3334
g13
I5
sg14
g15
(g19
S'\x05\x00\x00\x00\x00\x00\x00\x00'
p3335
tp3336
Rp3337
sg25
I1
sg26
I2
sg27
g161
ssS'5-01'
p3338
(dp3339
g13
I5
sg14
g15
(g19
S'\x04\x00\x00\x00\x00\x00\x00\x00'
p3340
tp3341
Rp3342
sg25
I1
sg26
I2
sg27
g161
ssS'8-00'
p3343
(dp3344
g13
I8
sg14
g15
(g19
S'\x05\x00\x00\x00\x00\x00\x00\x00'
p3345
tp3346
Rp3347
sg25
I1
sg26
I3
sg27
g28
ssS'7-00'
p3348
(dp3349
g13
I7
sg14
g15
(g19
S'\x05\x00\x00\x00\x00\x00\x00\x00'
p3350
tp3351
Rp3352
sg25
I0
sg26
I3
sg27
g28
ssS'5-08'
p3353
(dp3354
g13
I5
sg14
g15
(g19
S'\x04\x00\x00\x00\x00\x00\x00\x00'
p3355
tp3356
Rp3357
sg25
I1
sg26
I2
sg27
g59
ssS'0-00'
p3358
(dp3359
g13
I0
sg14
g15
(g19
S'\x05\x00\x00\x00\x00\x00\x00\x00'
p3360
tp3361
Rp3362
sg25
I2
sg26
I0
sg27
NssS'2-01'
p3363
(dp3364
g13
I2
sg14
g15
(g19
S'\x03\x00\x00\x00\x00\x00\x00\x00'
p3365
tp3366
Rp3367
sg25
I1
sg26
I1
sg27
g59
ssS'2-00'
p3368
(dp3369
g13
I2
sg14
g15
(g19
S'\x05\x00\x00\x00\x00\x00\x00\x00'
p3370
tp3371
Rp3372
sg25
I1
sg26
I1
sg27
g115
ssS'4-05'
p3373
(dp3374
g13
I4
sg14
g15
(g19
S'\x02\x00\x00\x00\x00\x00\x00\x00'
p3375
tp3376
Rp3377
sg25
I0
sg26
I2
sg27
g115
ssS'4-04'
p3378
(dp3379
g13
I4
sg14
g15
(g19
S'\x03\x00\x00\x00\x00\x00\x00\x00'
p3380
tp3381
Rp3382
sg25
I0
sg26
I2
sg27
g115
ssS'4-01'
p3383
(dp3384
g13
I4
sg14
g15
(g19
S'\x03\x00\x00\x00\x00\x00\x00\x00'
p3385
tp3386
Rp3387
sg25
I0
sg26
I2
sg27
g115
ssS'4-00'
p3388
(dp3389
g13
I4
sg14
g15
(g19
S'\x05\x00\x00\x00\x00\x00\x00\x00'
p3390
tp3391
Rp3392
sg25
I0
sg26
I2
sg27
g28
ssS'4-03'
p3393
(dp3394
g13
I4
sg14
g15
(g19
S'\x02\x00\x00\x00\x00\x00\x00\x00'
p3395
tp3396
Rp3397
sg25
I0
sg26
I2
sg27
g115
ssS'4-02'
p3398
(dp3399
g13
I4
sg14
g15
(g19
S'\x02\x00\x00\x00\x00\x00\x00\x00'
p3400
tp3401
Rp3402
sg25
I0
sg26
I2
sg27
g28
ssS'6-01'
p3403
(dp3404
g13
I6
sg14
g15
(g19
S'\x04\x00\x00\x00\x00\x00\x00\x00'
p3405
tp3406
Rp3407
sg25
I2
sg26
I2
sg27
g59
ssS'6-00'
p3408
(dp3409
g13
I6
sg14
g15
(g19
S'\x05\x00\x00\x00\x00\x00\x00\x00'
p3410
tp3411
Rp3412
sg25
I2
sg26
I2
sg27
g161
ssS'1-00'
p3413
(dp3414
g13
I1
sg14
g15
(g19
S'\x05\x00\x00\x00\x00\x00\x00\x00'
p3415
tp3416
Rp3417
sg25
I0
sg26
I1
sg27
g28
ssS'3-00'
p3418
(dp3419
g13
I3
sg14
g15
(g19
S'\x05\x00\x00\x00\x00\x00\x00\x00'
p3420
tp3421
Rp3422
sg25
I2
sg26
I1
sg27
g115
sssg192
g193
sg194
g193
sg195
(dp3423
g3303
(dp3424
S'6-00'
p3425
(dp3426
ssg3308
(dp3427
S'6-01'
p3428
(dp3429
ssg3313
(dp3430
S'6-00'
p3431
(dp3432
ssg3318
(dp3433
S'6-00'
p3434
(dp3435
ssg3323
(dp3436
S'6-00'
p3437
(dp3438
ssg3328
(dp3439
S'6-00'
p3440
(dp3441
ssg3333
(dp3442
S'6-00'
p3443
(dp3444
ssg3338
(dp3445
S'6-00'
p3446
(dp3447
ssg3343
(dp3448
sg3348
(dp3449
S'8-00'
p3450
(dp3451
ssg3353
(dp3452
S'6-00'
p3453
(dp3454
ssg3358
(dp3455
S'1-00'
p3456
(dp3457
ssg3363
(dp3458
S'3-00'
p3459
(dp3460
ssg3368
(dp3461
S'3-00'
p3462
(dp3463
ssg3373
(dp3464
S'5-00'
p3465
(dp3466
ssg3378
(dp3467
S'5-07'
p3468
(dp3469
ssg3383
(dp3470
S'5-05'
p3471
(dp3472
ssg3388
(dp3473
S'5-07'
p3474
(dp3475
sS'5-04'
p3476
(dp3477
sS'5-02'
p3478
(dp3479
sS'5-03'
p3480
(dp3481
sS'5-00'
p3482
(dp3483
sS'5-01'
p3484
(dp3485
sS'5-08'
p3486
(dp3487
ssg3393
(dp3488
S'5-06'
p3489
(dp3490
ssg3398
(dp3491
S'5-01'
p3492
(dp3493
ssg3403
(dp3494
S'7-00'
p3495
(dp3496
ssg3408
(dp3497
S'7-00'
p3498
(dp3499
ssg3413
(dp3500
S'2-01'
p3501
(dp3502
sS'2-00'
p3503
(dp3504
ssg3418
(dp3505
S'4-05'
p3506
(dp3507
sS'4-04'
p3508
(dp3509
sS'4-01'
p3510
(dp3511
sS'4-00'
p3512
(dp3513
sS'4-03'
p3514
(dp3515
sS'4-02'
p3516
(dp3517
sssg338
g3423
sg339
(dp3518
sg341
g193
sg342
g3423
sg343
(dp3519
g3303
(dp3520
S'4-03'
p3521
g3490
ssg3308
(dp3522
S'4-04'
p3523
g3469
sS'4-00'
p3524
g3475
ssg3313
(dp3525
S'4-00'
p3526
g3477
ssg3318
(dp3527
S'4-01'
p3528
g3472
ssg3323
(dp3529
S'4-00'
p3530
g3479
ssg3328
(dp3531
S'4-00'
p3532
g3481
ssg3333
(dp3533
S'4-05'
p3534
g3466
sS'4-00'
p3535
g3483
ssg3338
(dp3536
S'4-00'
p3537
g3485
sS'4-02'
p3538
g3493
ssg3343
(dp3539
S'7-00'
p3540
g3451
ssg3348
(dp3541
S'6-01'
p3542
g3496
sS'6-00'
p3543
g3499
ssg3353
(dp3544
S'4-00'
p3545
g3487
ssg3358
(dp3546
sg3363
(dp3547
S'1-00'
p3548
g3502
ssg3368
(dp3549
S'1-00'
p3550
g3504
ssg3373
(dp3551
S'3-00'
p3552
g3507
ssg3378
(dp3553
S'3-00'
p3554
g3509
ssg3383
(dp3555
S'3-00'
p3556
g3511
ssg3388
(dp3557
S'3-00'
p3558
g3513
ssg3393
(dp3559
S'3-00'
p3560
g3515
ssg3398
(dp3561
S'3-00'
p3562
g3517
ssg3403
(dp3563
S'5-07'
p3564
g3429
ssg3408
(dp3565
S'5-06'
p3566
g3426
sS'5-04'
p3567
g3432
sS'5-05'
p3568
g3435
sS'5-02'
p3569
g3438
sS'5-03'
p3570
g3441
sS'5-00'
p3571
g3444
sS'5-01'
p3572
g3447
sS'5-08'
p3573
g3454
ssg3413
(dp3574
S'0-00'
p3575
g3457
ssg3418
(dp3576
S'2-01'
p3577
g3460
sS'2-00'
p3578
g3463
sssbsg432
S'kensingtonpride'
p3579
sg434
I01
sg435
S'I11'
p3580
sa(dp3581
g2
g3
(g4
g5
Ntp3582
Rp3583
(dp3584
g9
(dp3585
S'5-00'
p3586
(dp3587
g13
I5
sg14
g15
(g19
S'\x05\x00\x00\x00\x00\x00\x00\x00'
p3588
tp3589
Rp3590
sg25
I1
sg26
I2
sg27
g59
ssS'5-01'
p3591
(dp3592
g13
I5
sg14
g15
(g19
S'\x02\x00\x00\x00\x00\x00\x00\x00'
p3593
tp3594
Rp3595
sg25
I1
sg26
I2
sg27
g28
ssS'8-00'
p3596
(dp3597
g13
I8
sg14
g15
(g19
S'\x05\x00\x00\x00\x00\x00\x00\x00'
p3598
tp3599
Rp3600
sg25
I1
sg26
I3
sg27
NssS'7-00'
p3601
(dp3602
g13
I7
sg14
g15
(g19
S'\x05\x00\x00\x00\x00\x00\x00\x00'
p3603
tp3604
Rp3605
sg25
I0
sg26
I3
sg27
NssS'0-00'
p3606
(dp3607
g13
I0
sg14
g15
(g19
S'\x05\x00\x00\x00\x00\x00\x00\x00'
p3608
tp3609
Rp3610
sg25
I2
sg26
I0
sg27
NssS'2-04'
p3611
(dp3612
g13
I2
sg14
g15
(g19
S'\x02\x00\x00\x00\x00\x00\x00\x00'
p3613
tp3614
Rp3615
sg25
I1
sg26
I1
sg27
g59
ssS'2-03'
p3616
(dp3617
g13
I2
sg14
g15
(g19
S'\x02\x00\x00\x00\x00\x00\x00\x00'
p3618
tp3619
Rp3620
sg25
I1
sg26
I1
sg27
g59
ssS'2-02'
p3621
(dp3622
g13
I2
sg14
g15
(g19
S'\x02\x00\x00\x00\x00\x00\x00\x00'
p3623
tp3624
Rp3625
sg25
I1
sg26
I1
sg27
g59
ssS'2-01'
p3626
(dp3627
g13
I2
sg14
g15
(g19
S'\x04\x00\x00\x00\x00\x00\x00\x00'
p3628
tp3629
Rp3630
sg25
I1
sg26
I1
sg27
g115
ssS'2-00'
p3631
(dp3632
g13
I2
sg14
g15
(g19
S'\x05\x00\x00\x00\x00\x00\x00\x00'
p3633
tp3634
Rp3635
sg25
I1
sg26
I1
sg27
g115
ssS'4-00'
p3636
(dp3637
g13
I4
sg14
g15
(g19
S'\x05\x00\x00\x00\x00\x00\x00\x00'
p3638
tp3639
Rp3640
sg25
I0
sg26
I2
sg27
g28
ssS'6-03'
p3641
(dp3642
g13
I6
sg14
g15
(g19
S'\x04\x00\x00\x00\x00\x00\x00\x00'
p3643
tp3644
Rp3645
sg25
I2
sg26
I2
sg27
g59
ssS'6-02'
p3646
(dp3647
g13
I6
sg14
g15
(g19
S'\x02\x00\x00\x00\x00\x00\x00\x00'
p3648
tp3649
Rp3650
sg25
I2
sg26
I2
sg27
g28
ssS'6-01'
p3651
(dp3652
g13
I6
sg14
g15
(g19
S'\x04\x00\x00\x00\x00\x00\x00\x00'
p3653
tp3654
Rp3655
sg25
I2
sg26
I2
sg27
g161
ssS'6-00'
p3656
(dp3657
g13
I6
sg14
g15
(g19
S'\x05\x00\x00\x00\x00\x00\x00\x00'
p3658
tp3659
Rp3660
sg25
I2
sg26
I2
sg27
g161
ssS'6-04'
p3661
(dp3662
g13
I6
sg14
g15
(g19
S'\x02\x00\x00\x00\x00\x00\x00\x00'
p3663
tp3664
Rp3665
sg25
I2
sg26
I2
sg27
g59
ssS'1-00'
p3666
(dp3667
g13
I1
sg14
g15
(g19
S'\x05\x00\x00\x00\x00\x00\x00\x00'
p3668
tp3669
Rp3670
sg25
I0
sg26
I1
sg27
g28
ssS'3-00'
p3671
(dp3672
g13
I3
sg14
g15
(g19
S'\x05\x00\x00\x00\x00\x00\x00\x00'
p3673
tp3674
Rp3675
sg25
I2
sg26
I1
sg27
g115
ssS'3-01'
p3676
(dp3677
g13
I3
sg14
g15
(g19
S'\x02\x00\x00\x00\x00\x00\x00\x00'
p3678
tp3679
Rp3680
sg25
I2
sg26
I1
sg27
g59
ssS'3-02'
p3681
(dp3682
g13
I3
sg14
g15
(g19
S'\x02\x00\x00\x00\x00\x00\x00\x00'
p3683
tp3684
Rp3685
sg25
I2
sg26
I1
sg27
g59
ssS'3-03'
p3686
(dp3687
g13
I3
sg14
g15
(g19
S'\x04\x00\x00\x00\x00\x00\x00\x00'
p3688
tp3689
Rp3690
sg25
I2
sg26
I1
sg27
g59
ssS'3-04'
p3691
(dp3692
g13
I3
sg14
g15
(g19
S'\x02\x00\x00\x00\x00\x00\x00\x00'
p3693
tp3694
Rp3695
sg25
I2
sg26
I1
sg27
g59
ssS'3-05'
p3696
(dp3697
g13
I3
sg14
g15
(g19
S'\x02\x00\x00\x00\x00\x00\x00\x00'
p3698
tp3699
Rp3700
sg25
I2
sg26
I1
sg27
g161
sssg192
g193
sg194
g193
sg195
(dp3701
g3586
(dp3702
S'6-03'
p3703
(dp3704
sS'6-01'
p3705
(dp3706
sS'6-00'
p3707
(dp3708
sS'6-04'
p3709
(dp3710
ssg3591
(dp3711
S'6-02'
p3712
(dp3713
ssg3596
(dp3714
sg3601
(dp3715
S'8-00'
p3716
(dp3717
ssg3606
(dp3718
S'1-00'
p3719
(dp3720
ssg3611
(dp3721
S'3-05'
p3722
(dp3723
ssg3616
(dp3724
S'3-00'
p3725
(dp3726
ssg3621
(dp3727
S'3-02'
p3728
(dp3729
ssg3626
(dp3730
S'3-00'
p3731
(dp3732
sS'3-03'
p3733
(dp3734
sS'3-04'
p3735
(dp3736
ssg3631
(dp3737
S'3-00'
p3738
(dp3739
sS'3-01'
p3740
(dp3741
ssg3636
(dp3742
S'5-00'
p3743
(dp3744
sS'5-01'
p3745
(dp3746
ssg3641
(dp3747
S'7-00'
p3748
(dp3749
ssg3646
(dp3750
S'7-00'
p3751
(dp3752
ssg3651
(dp3753
S'7-00'
p3754
(dp3755
ssg3656
(dp3756
S'7-00'
p3757
(dp3758
ssg3661
(dp3759
S'7-00'
p3760
(dp3761
ssg3666
(dp3762
S'2-04'
p3763
(dp3764
sS'2-02'
p3765
(dp3766
sS'2-01'
p3767
(dp3768
sS'2-00'
p3769
(dp3770
ssg3671
(dp3771
S'4-00'
p3772
(dp3773
ssg3676
(dp3774
S'4-00'
p3775
(dp3776
ssg3681
(dp3777
S'4-00'
p3778
(dp3779
ssg3686
(dp3780
S'4-00'
p3781
(dp3782
ssg3691
(dp3783
S'4-00'
p3784
(dp3785
ssg3696
(dp3786
S'4-00'
p3787
(dp3788
sssg338
g3701
sg339
(dp3789
sg341
g193
sg342
g3701
sg343
(dp3790
g3586
(dp3791
S'4-00'
p3792
g3744
ssg3591
(dp3793
S'4-00'
p3794
g3746
ssg3596
(dp3795
S'7-00'
p3796
g3717
ssg3601
(dp3797
S'6-03'
p3798
g3749
sS'6-02'
p3799
g3752
sS'6-01'
p3800
g3755
sS'6-00'
p3801
g3758
sS'6-04'
p3802
g3761
ssg3606
(dp3803
sg3611
(dp3804
S'1-00'
p3805
g3764
ssg3616
(dp3806
sg3621
(dp3807
S'1-00'
p3808
g3766
ssg3626
(dp3809
S'1-00'
p3810
g3768
ssg3631
(dp3811
S'1-00'
p3812
g3770
ssg3636
(dp3813
S'3-00'
p3814
g3773
sS'3-01'
p3815
g3776
sS'3-02'
p3816
g3779
sS'3-03'
p3817
g3782
sS'3-04'
p3818
g3785
sS'3-05'
p3819
g3788
ssg3641
(dp3820
S'5-00'
p3821
g3704
ssg3646
(dp3822
S'5-01'
p3823
g3713
ssg3651
(dp3824
S'5-00'
p3825
g3706
ssg3656
(dp3826
S'5-00'
p3827
g3708
ssg3661
(dp3828
S'5-00'
p3829
g3710
ssg3666
(dp3830
S'0-00'
p3831
g3720
ssg3671
(dp3832
S'2-03'
p3833
g3726
sS'2-01'
p3834
g3732
sS'2-00'
p3835
g3739
ssg3676
(dp3836
S'2-00'
p3837
g3741
ssg3681
(dp3838
S'2-02'
p3839
g3729
ssg3686
(dp3840
S'2-01'
p3841
g3734
ssg3691
(dp3842
S'2-01'
p3843
g3736
ssg3696
(dp3844
S'2-04'
p3845
g3723
sssbsg432
S'kensingtonpride'
p3846
sg434
I00
sg435
S'I8'
p3847
sa(dp3848
g2
g3
(g4
g5
Ntp3849
Rp3850
(dp3851
g9
(dp3852
S'6-03'
p3853
(dp3854
g13
I6
sg14
g15
(g19
S'\x04\x00\x00\x00\x00\x00\x00\x00'
p3855
tp3856
Rp3857
sg25
I2
sg26
I2
sg27
g161
ssS'0-00'
p3858
(dp3859
g13
I0
sg14
g15
(g19
S'\x05\x00\x00\x00\x00\x00\x00\x00'
p3860
tp3861
Rp3862
sg25
I2
sg26
I0
sg27
NssS'5-04'
p3863
(dp3864
g13
I5
sg14
g15
(g19
S'\x03\x00\x00\x00\x00\x00\x00\x00'
p3865
tp3866
Rp3867
sg25
I1
sg26
I2
sg27
g28
ssS'6-00'
p3868
(dp3869
g13
I6
sg14
g15
(g19
S'\x05\x00\x00\x00\x00\x00\x00\x00'
p3870
tp3871
Rp3872
sg25
I2
sg26
I2
sg27
g161
ssS'5-02'
p3873
(dp3874
g13
I5
sg14
g15
(g19
S'\x03\x00\x00\x00\x00\x00\x00\x00'
p3875
tp3876
Rp3877
sg25
I1
sg26
I2
sg27
g28
ssS'5-03'
p3878
(dp3879
g13
I5
sg14
g15
(g19
S'\x02\x00\x00\x00\x00\x00\x00\x00'
p3880
tp3881
Rp3882
sg25
I1
sg26
I2
sg27
g28
ssS'5-00'
p3883
(dp3884
g13
I5
sg14
g15
(g19
S'\x05\x00\x00\x00\x00\x00\x00\x00'
p3885
tp3886
Rp3887
sg25
I1
sg26
I2
sg27
g59
ssS'6-02'
p3888
(dp3889
g13
I6
sg14
g15
(g19
S'\x03\x00\x00\x00\x00\x00\x00\x00'
p3890
tp3891
Rp3892
sg25
I2
sg26
I2
sg27
g28
ssS'8-00'
p3893
(dp3894
g13
I8
sg14
g15
(g19
S'\x05\x00\x00\x00\x00\x00\x00\x00'
p3895
tp3896
Rp3897
sg25
I1
sg26
I3
sg27
NssS'1-00'
p3898
(dp3899
g13
I1
sg14
g15
(g19
S'\x05\x00\x00\x00\x00\x00\x00\x00'
p3900
tp3901
Rp3902
sg25
I0
sg26
I1
sg27
g28
ssS'5-01'
p3903
(dp3904
g13
I5
sg14
g15
(g19
S'\x03\x00\x00\x00\x00\x00\x00\x00'
p3905
tp3906
Rp3907
sg25
I1
sg26
I2
sg27
g59
ssS'7-00'
p3908
(dp3909
g13
I7
sg14
g15
(g19
S'\x05\x00\x00\x00\x00\x00\x00\x00'
p3910
tp3911
Rp3912
sg25
I0
sg26
I3
sg27
NssS'6-01'
p3913
(dp3914
g13
I6
sg14
g15
(g19
S'\x04\x00\x00\x00\x00\x00\x00\x00'
p3915
tp3916
Rp3917
sg25
I2
sg26
I2
sg27
g161
ssS'3-00'
p3918
(dp3919
g13
I3
sg14
g15
(g19
S'\x05\x00\x00\x00\x00\x00\x00\x00'
p3920
tp3921
Rp3922
sg25
I2
sg26
I1
sg27
g115
ssS'2-00'
p3923
(dp3924
g13
I2
sg14
g15
(g19
S'\x05\x00\x00\x00\x00\x00\x00\x00'
p3925
tp3926
Rp3927
sg25
I1
sg26
I1
sg27
g115
ssS'4-00'
p3928
(dp3929
g13
I4
sg14
g15
(g19
S'\x05\x00\x00\x00\x00\x00\x00\x00'
p3930
tp3931
Rp3932
sg25
I0
sg26
I2
sg27
g28
sssg192
g193
sg194
g193
sg195
(dp3933
g3853
(dp3934
S'7-00'
p3935
(dp3936
ssg3858
(dp3937
S'1-00'
p3938
(dp3939
ssg3863
(dp3940
S'6-00'
p3941
(dp3942
ssg3868
(dp3943
S'7-00'
p3944
(dp3945
ssg3873
(dp3946
S'6-02'
p3947
(dp3948
ssg3878
(dp3949
S'6-00'
p3950
(dp3951
ssg3883
(dp3952
S'6-03'
p3953
(dp3954
sS'6-01'
p3955
(dp3956
sS'6-00'
p3957
(dp3958
ssg3888
(dp3959
S'7-00'
p3960
(dp3961
ssg3893
(dp3962
sg3898
(dp3963
S'2-00'
p3964
(dp3965
ssg3903
(dp3966
S'6-00'
p3967
(dp3968
ssg3908
(dp3969
S'8-00'
p3970
(dp3971
ssg3913
(dp3972
S'7-00'
p3973
(dp3974
ssg3918
(dp3975
S'4-00'
p3976
(dp3977
ssg3923
(dp3978
S'3-00'
p3979
(dp3980
ssg3928
(dp3981
S'5-04'
p3982
(dp3983
sS'5-02'
p3984
(dp3985
sS'5-03'
p3986
(dp3987
sS'5-00'
p3988
(dp3989
sS'5-01'
p3990
(dp3991
sssg338
g3933
sg339
(dp3992
sg341
g193
sg342
g3933
sg343
(dp3993
g3853
(dp3994
S'5-00'
p3995
g3954
ssg3858
(dp3996
sg3863
(dp3997
S'4-00'
p3998
g3983
ssg3868
(dp3999
S'5-04'
p4000
g3942
sS'5-03'
p4001
g3951
sS'5-00'
p4002
g3958
sS'5-01'
p4003
g3968
ssg3873
(dp4004
S'4-00'
p4005
g3985
ssg3878
(dp4006
S'4-00'
p4007
g3987
ssg3883
(dp4008
S'4-00'
p4009
g3989
ssg3888
(dp4010
S'5-02'
p4011
g3948
ssg3893
(dp4012
S'7-00'
p4013
g3971
ssg3898
(dp4014
S'0-00'
p4015
g3939
ssg3903
(dp4016
S'4-00'
p4017
g3991
ssg3908
(dp4018
S'6-03'
p4019
g3936
sS'6-02'
p4020
g3961
sS'6-01'
p4021
g3974
sS'6-00'
p4022
g3945
ssg3913
(dp4023
S'5-00'
p4024
g3956
ssg3918
(dp4025
S'2-00'
p4026
g3980
ssg3923
(dp4027
S'1-00'
p4028
g3965
ssg3928
(dp4029
S'3-00'
p4030
g3977
sssbsg432
S'cogshall'
p4031
sg434
I00
sg435
S'F6'
p4032
sa(dp4033
g2
g3
(g4
g5
Ntp4034
Rp4035
(dp4036
g9
(dp4037
S'5-06'
p4038
(dp4039
g13
I5
sg14
g15
(g19
S'\x04\x00\x00\x00\x00\x00\x00\x00'
p4040
tp4041
Rp4042
sg25
I1
sg26
I2
sg27
g59
ssS'0-00'
p4043
(dp4044
g13
I0
sg14
g15
(g19
S'\x05\x00\x00\x00\x00\x00\x00\x00'
p4045
tp4046
Rp4047
sg25
I2
sg26
I0
sg27
g28
ssS'5-04'
p4048
(dp4049
g13
I5
sg14
g15
(g19
S'\x04\x00\x00\x00\x00\x00\x00\x00'
p4050
tp4051
Rp4052
sg25
I1
sg26
I2
sg27
g59
ssS'5-05'
p4053
(dp4054
g13
I5
sg14
g15
(g19
S'\x04\x00\x00\x00\x00\x00\x00\x00'
p4055
tp4056
Rp4057
sg25
I1
sg26
I2
sg27
g115
ssS'5-02'
p4058
(dp4059
g13
I5
sg14
g15
(g19
S'\x02\x00\x00\x00\x00\x00\x00\x00'
p4060
tp4061
Rp4062
sg25
I1
sg26
I2
sg27
g115
ssS'5-03'
p4063
(dp4064
g13
I5
sg14
g15
(g19
S'\x04\x00\x00\x00\x00\x00\x00\x00'
p4065
tp4066
Rp4067
sg25
I1
sg26
I2
sg27
g59
ssS'5-00'
p4068
(dp4069
g13
I5
sg14
g15
(g19
S'\x05\x00\x00\x00\x00\x00\x00\x00'
p4070
tp4071
Rp4072
sg25
I1
sg26
I2
sg27
g161
ssS'5-01'
p4073
(dp4074
g13
I5
sg14
g15
(g19
S'\x04\x00\x00\x00\x00\x00\x00\x00'
p4075
tp4076
Rp4077
sg25
I1
sg26
I2
sg27
g28
ssS'8-00'
p4078
(dp4079
g13
I8
sg14
g15
(g19
S'\x05\x00\x00\x00\x00\x00\x00\x00'
p4080
tp4081
Rp4082
sg25
I1
sg26
I3
sg27
g28
ssS'1-00'
p4083
(dp4084
g13
I1
sg14
g15
(g19
S'\x05\x00\x00\x00\x00\x00\x00\x00'
p4085
tp4086
Rp4087
sg25
I0
sg26
I1
sg27
g28
ssS'6-04'
p4088
(dp4089
g13
I6
sg14
g15
(g19
S'\x02\x00\x00\x00\x00\x00\x00\x00'
p4090
tp4091
Rp4092
sg25
I2
sg26
I2
sg27
g115
ssS'7-00'
p4093
(dp4094
g13
I7
sg14
g15
(g19
S'\x05\x00\x00\x00\x00\x00\x00\x00'
p4095
tp4096
Rp4097
sg25
I0
sg26
I3
sg27
g28
ssS'6-01'
p4098
(dp4099
g13
I6
sg14
g15
(g19
S'\x04\x00\x00\x00\x00\x00\x00\x00'
p4100
tp4101
Rp4102
sg25
I2
sg26
I2
sg27
g115
ssS'4-00'
p4103
(dp4104
g13
I4
sg14
g15
(g19
S'\x05\x00\x00\x00\x00\x00\x00\x00'
p4105
tp4106
Rp4107
sg25
I0
sg26
I2
sg27
g28
ssS'3-00'
p4108
(dp4109
g13
I3
sg14
g15
(g19
S'\x05\x00\x00\x00\x00\x00\x00\x00'
p4110
tp4111
Rp4112
sg25
I2
sg26
I1
sg27
g115
ssS'6-00'
p4113
(dp4114
g13
I6
sg14
g15
(g19
S'\x05\x00\x00\x00\x00\x00\x00\x00'
p4115
tp4116
Rp4117
sg25
I2
sg26
I2
sg27
g161
ssS'6-03'
p4118
(dp4119
g13
I6
sg14
g15
(g19
S'\x02\x00\x00\x00\x00\x00\x00\x00'
p4120
tp4121
Rp4122
sg25
I2
sg26
I2
sg27
g115
ssS'2-00'
p4123
(dp4124
g13
I2
sg14
g15
(g19
S'\x05\x00\x00\x00\x00\x00\x00\x00'
p4125
tp4126
Rp4127
sg25
I1
sg26
I1
sg27
g115
ssS'6-05'
p4128
(dp4129
g13
I6
sg14
g15
(g19
S'\x04\x00\x00\x00\x00\x00\x00\x00'
p4130
tp4131
Rp4132
sg25
I2
sg26
I2
sg27
g161
ssS'6-02'
p4133
(dp4134
g13
I6
sg14
g15
(g19
S'\x04\x00\x00\x00\x00\x00\x00\x00'
p4135
tp4136
Rp4137
sg25
I2
sg26
I2
sg27
g28
ssS'6-06'
p4138
(dp4139
g13
I6
sg14
g15
(g19
S'\x04\x00\x00\x00\x00\x00\x00\x00'
p4140
tp4141
Rp4142
sg25
I2
sg26
I2
sg27
g115
sssg192
g193
sg194
g193
sg195
(dp4143
g4038
(dp4144
S'6-06'
p4145
(dp4146
sS'6-05'
p4147
(dp4148
ssg4043
(dp4149
S'1-00'
p4150
(dp4151
ssg4048
(dp4152
S'6-00'
p4153
(dp4154
ssg4053
(dp4155
S'6-04'
p4156
(dp4157
ssg4058
(dp4158
S'6-00'
p4159
(dp4160
ssg4063
(dp4161
S'6-01'
p4162
(dp4163
ssg4068
(dp4164
S'6-00'
p4165
(dp4166
ssg4073
(dp4167
S'6-03'
p4168
(dp4169
sS'6-02'
p4170
(dp4171
sS'6-00'
p4172
(dp4173
ssg4078
(dp4174
sg4083
(dp4175
S'2-00'
p4176
(dp4177
ssg4088
(dp4178
S'7-00'
p4179
(dp4180
ssg4093
(dp4181
S'8-00'
p4182
(dp4183
ssg4098
(dp4184
S'7-00'
p4185
(dp4186
ssg4103
(dp4187
S'5-06'
p4188
(dp4189
sS'5-04'
p4190
(dp4191
sS'5-05'
p4192
(dp4193
sS'5-02'
p4194
(dp4195
sS'5-03'
p4196
(dp4197
sS'5-00'
p4198
(dp4199
sS'5-01'
p4200
(dp4201
ssg4108
(dp4202
S'4-00'
p4203
(dp4204
ssg4113
(dp4205
S'7-00'
p4206
(dp4207
ssg4118
(dp4208
S'7-00'
p4209
(dp4210
ssg4123
(dp4211
S'3-00'
p4212
(dp4213
ssg4128
(dp4214
S'7-00'
p4215
(dp4216
ssg4133
(dp4217
S'7-00'
p4218
(dp4219
ssg4138
(dp4220
S'7-00'
p4221
(dp4222
sssg338
g4143
sg339
(dp4223
sg341
g193
sg342
g4143
sg343
(dp4224
g4038
(dp4225
S'4-00'
p4226
g4189
ssg4043
(dp4227
sg4048
(dp4228
S'4-00'
p4229
g4191
ssg4053
(dp4230
S'4-00'
p4231
g4193
ssg4058
(dp4232
S'4-00'
p4233
g4195
ssg4063
(dp4234
S'4-00'
p4235
g4197
ssg4068
(dp4236
S'4-00'
p4237
g4199
ssg4073
(dp4238
S'4-00'
p4239
g4201
ssg4078
(dp4240
S'7-00'
p4241
g4183
ssg4083
(dp4242
S'0-00'
p4243
g4151
ssg4088
(dp4244
S'5-05'
p4245
g4157
ssg4093
(dp4246
S'6-03'
p4247
g4210
sS'6-02'
p4248
g4219
sS'6-01'
p4249
g4186
sS'6-00'
p4250
g4207
sS'6-06'
p4251
g4222
sS'6-05'
p4252
g4216
sS'6-04'
p4253
g4180
ssg4098
(dp4254
S'5-03'
p4255
g4163
ssg4103
(dp4256
S'3-00'
p4257
g4204
ssg4108
(dp4258
S'2-00'
p4259
g4213
ssg4113
(dp4260
S'5-04'
p4261
g4154
sS'5-02'
p4262
g4160
sS'5-00'
p4263
g4166
sS'5-01'
p4264
g4173
ssg4118
(dp4265
S'5-01'
p4266
g4169
ssg4123
(dp4267
S'1-00'
p4268
g4177
ssg4128
(dp4269
S'5-06'
p4270
g4148
ssg4133
(dp4271
S'5-01'
p4272
g4171
ssg4138
(dp4273
S'5-06'
p4274
g4146
sssbsg432
S'jose'
p4275
sg434
I01
sg435
S'F12'
p4276
sa(dp4277
g2
g3
(g4
g5
Ntp4278
Rp4279
(dp4280
g9
(dp4281
S'5-02'
p4282
(dp4283
g13
I5
sg14
g15
(g19
S'\x04\x00\x00\x00\x00\x00\x00\x00'
p4284
tp4285
Rp4286
sg25
I1
sg26
I2
sg27
g59
ssS'5-00'
p4287
(dp4288
g13
I5
sg14
g15
(g19
S'\x05\x00\x00\x00\x00\x00\x00\x00'
p4289
tp4290
Rp4291
sg25
I1
sg26
I2
sg27
g59
ssS'5-01'
p4292
(dp4293
g13
I5
sg14
g15
(g19
S'\x02\x00\x00\x00\x00\x00\x00\x00'
p4294
tp4295
Rp4296
sg25
I1
sg26
I2
sg27
g28
ssS'8-00'
p4297
(dp4298
g13
I8
sg14
g15
(g19
S'\x05\x00\x00\x00\x00\x00\x00\x00'
p4299
tp4300
Rp4301
sg25
I1
sg26
I3
sg27
NssS'7-00'
p4302
(dp4303
g13
I7
sg14
g15
(g19
S'\x05\x00\x00\x00\x00\x00\x00\x00'
p4304
tp4305
Rp4306
sg25
I0
sg26
I3
sg27
NssS'0-00'
p4307
(dp4308
g13
I0
sg14
g15
(g19
S'\x05\x00\x00\x00\x00\x00\x00\x00'
p4309
tp4310
Rp4311
sg25
I2
sg26
I0
sg27
NssS'2-01'
p4312
(dp4313
g13
I2
sg14
g15
(g19
S'\x04\x00\x00\x00\x00\x00\x00\x00'
p4314
tp4315
Rp4316
sg25
I1
sg26
I1
sg27
g59
ssS'2-00'
p4317
(dp4318
g13
I2
sg14
g15
(g19
S'\x04\x00\x00\x00\x00\x00\x00\x00'
p4319
tp4320
Rp4321
sg25
I1
sg26
I1
sg27
g115
ssS'4-00'
p4322
(dp4323
g13
I4
sg14
g15
(g19
S'\x05\x00\x00\x00\x00\x00\x00\x00'
p4324
tp4325
Rp4326
sg25
I0
sg26
I2
sg27
g28
ssS'6-03'
p4327
(dp4328
g13
I6
sg14
g15
(g19
S'\x03\x00\x00\x00\x00\x00\x00\x00'
p4329
tp4330
Rp4331
sg25
I2
sg26
I2
sg27
g59
ssS'6-02'
p4332
(dp4333
g13
I6
sg14
g15
(g19
S'\x04\x00\x00\x00\x00\x00\x00\x00'
p4334
tp4335
Rp4336
sg25
I2
sg26
I2
sg27
g59
ssS'6-01'
p4337
(dp4338
g13
I6
sg14
g15
(g19
S'\x04\x00\x00\x00\x00\x00\x00\x00'
p4339
tp4340
Rp4341
sg25
I2
sg26
I2
sg27
g161
ssS'6-00'
p4342
(dp4343
g13
I6
sg14
g15
(g19
S'\x05\x00\x00\x00\x00\x00\x00\x00'
p4344
tp4345
Rp4346
sg25
I2
sg26
I2
sg27
g161
ssS'1-00'
p4347
(dp4348
g13
I1
sg14
g15
(g19
S'\x05\x00\x00\x00\x00\x00\x00\x00'
p4349
tp4350
Rp4351
sg25
I0
sg26
I1
sg27
NssS'3-00'
p4352
(dp4353
g13
I3
sg14
g15
(g19
S'\x05\x00\x00\x00\x00\x00\x00\x00'
p4354
tp4355
Rp4356
sg25
I2
sg26
I1
sg27
g59
ssS'3-01'
p4357
(dp4358
g13
I3
sg14
g15
(g19
S'\x04\x00\x00\x00\x00\x00\x00\x00'
p4359
tp4360
Rp4361
sg25
I2
sg26
I1
sg27
g115
ssS'3-02'
p4362
(dp4363
g13
I3
sg14
g15
(g19
S'\x02\x00\x00\x00\x00\x00\x00\x00'
p4364
tp4365
Rp4366
sg25
I2
sg26
I1
sg27
g28
ssS'3-03'
p4367
(dp4368
g13
I3
sg14
g15
(g19
S'\x03\x00\x00\x00\x00\x00\x00\x00'
p4369
tp4370
Rp4371
sg25
I2
sg26
I1
sg27
g161
ssS'3-04'
p4372
(dp4373
g13
I3
sg14
g15
(g19
S'\x02\x00\x00\x00\x00\x00\x00\x00'
p4374
tp4375
Rp4376
sg25
I2
sg26
I1
sg27
g28
ssS'3-05'
p4377
(dp4378
g13
I3
sg14
g15
(g19
S'\x02\x00\x00\x00\x00\x00\x00\x00'
p4379
tp4380
Rp4381
sg25
I2
sg26
I1
sg27
g115
ssS'3-06'
p4382
(dp4383
g13
I3
sg14
g15
(g19
S'\x01\x00\x00\x00\x00\x00\x00\x00'
p4384
tp4385
Rp4386
sg25
I2
sg26
I1
sg27
g28
ssS'3-07'
p4387
(dp4388
g13
I3
sg14
g15
(g19
S'\x01\x00\x00\x00\x00\x00\x00\x00'
p4389
tp4390
Rp4391
sg25
I2
sg26
I1
sg27
g28
ssS'3-08'
p4392
(dp4393
g13
I3
sg14
g15
(g19
S'\x04\x00\x00\x00\x00\x00\x00\x00'
p4394
tp4395
Rp4396
sg25
I2
sg26
I1
sg27
g115
sssg192
g193
sg194
g193
sg195
(dp4397
g4282
(dp4398
S'6-02'
p4399
(dp4400
ssg4287
(dp4401
S'6-03'
p4402
(dp4403
sS'6-01'
p4404
(dp4405
sS'6-00'
p4406
(dp4407
ssg4292
(dp4408
S'6-00'
p4409
(dp4410
ssg4297
(dp4411
sg4302
(dp4412
S'8-00'
p4413
(dp4414
ssg4307
(dp4415
S'1-00'
p4416
(dp4417
ssg4312
(dp4418
S'3-00'
p4419
(dp4420
sS'3-01'
p4421
(dp4422
sS'3-02'
p4423
(dp4424
sS'3-03'
p4425
(dp4426
ssg4317
(dp4427
S'3-00'
p4428
(dp4429
sS'3-04'
p4430
(dp4431
sS'3-05'
p4432
(dp4433
sS'3-06'
p4434
(dp4435
sS'3-07'
p4436
(dp4437
sS'3-08'
p4438
(dp4439
ssg4322
(dp4440
S'5-02'
p4441
(dp4442
sS'5-00'
p4443
(dp4444
sS'5-01'
p4445
(dp4446
ssg4327
(dp4447
S'7-00'
p4448
(dp4449
ssg4332
(dp4450
S'7-00'
p4451
(dp4452
ssg4337
(dp4453
S'7-00'
p4454
(dp4455
ssg4342
(dp4456
S'7-00'
p4457
(dp4458
ssg4347
(dp4459
S'2-01'
p4460
(dp4461
sS'2-00'
p4462
(dp4463
ssg4352
(dp4464
S'4-00'
p4465
(dp4466
ssg4357
(dp4467
S'4-00'
p4468
(dp4469
ssg4362
(dp4470
S'4-00'
p4471
(dp4472
ssg4367
(dp4473
S'4-00'
p4474
(dp4475
ssg4372
(dp4476
S'4-00'
p4477
(dp4478
ssg4377
(dp4479
S'4-00'
p4480
(dp4481
ssg4382
(dp4482
S'4-00'
p4483
(dp4484
ssg4387
(dp4485
S'4-00'
p4486
(dp4487
ssg4392
(dp4488
S'4-00'
p4489
(dp4490
sssg338
g4397
sg339
(dp4491
sg341
g193
sg342
g4397
sg343
(dp4492
g4282
(dp4493
S'4-00'
p4494
g4442
ssg4287
(dp4495
S'4-00'
p4496
g4444
ssg4292
(dp4497
S'4-00'
p4498
g4446
ssg4297
(dp4499
S'7-00'
p4500
g4414
ssg4302
(dp4501
S'6-03'
p4502
g4449
sS'6-02'
p4503
g4452
sS'6-01'
p4504
g4455
sS'6-00'
p4505
g4458
ssg4307
(dp4506
sg4312
(dp4507
S'1-00'
p4508
g4461
ssg4317
(dp4509
S'1-00'
p4510
g4463
ssg4322
(dp4511
S'3-00'
p4512
g4466
sS'3-01'
p4513
g4469
sS'3-02'
p4514
g4472
sS'3-03'
p4515
g4475
sS'3-04'
p4516
g4478
sS'3-05'
p4517
g4481
sS'3-06'
p4518
g4484
sS'3-07'
p4519
g4487
sS'3-08'
p4520
g4490
ssg4327
(dp4521
S'5-00'
p4522
g4403
ssg4332
(dp4523
S'5-02'
p4524
g4400
ssg4337
(dp4525
S'5-00'
p4526
g4405
ssg4342
(dp4527
S'5-00'
p4528
g4407
sS'5-01'
p4529
g4410
ssg4347
(dp4530
S'0-00'
p4531
g4417
ssg4352
(dp4532
S'2-01'
p4533
g4420
sS'2-00'
p4534
g4429
ssg4357
(dp4535
S'2-01'
p4536
g4422
ssg4362
(dp4537
S'2-01'
p4538
g4424
ssg4367
(dp4539
S'2-01'
p4540
g4426
ssg4372
(dp4541
S'2-00'
p4542
g4431
ssg4377
(dp4543
S'2-00'
p4544
g4433
ssg4382
(dp4545
S'2-00'
p4546
g4435
ssg4387
(dp4547
S'2-00'
p4548
g4437
ssg4392
(dp4549
S'2-00'
p4550
g4439
sssbsg432
S'jose'
p4551
sg434
I00
sg435
S'F13'
p4552
sa(dp4553
g2
g3
(g4
g5
Ntp4554
Rp4555
(dp4556
g9
(dp4557
S'6-03'
p4558
(dp4559
g13
I6
sg14
g15
(g19
S'\x02\x00\x00\x00\x00\x00\x00\x00'
p4560
tp4561
Rp4562
sg25
I2
sg26
I2
sg27
g28
ssS'0-00'
p4563
(dp4564
g13
I0
sg14
g15
(g19
S'\x05\x00\x00\x00\x00\x00\x00\x00'
p4565
tp4566
Rp4567
sg25
I2
sg26
I0
sg27
NssS'6-01'
p4568
(dp4569
g13
I6
sg14
g15
(g19
S'\x04\x00\x00\x00\x00\x00\x00\x00'
p4570
tp4571
Rp4572
sg25
I2
sg26
I2
sg27
g161
ssS'6-00'
p4573
(dp4574
g13
I6
sg14
g15
(g19
S'\x05\x00\x00\x00\x00\x00\x00\x00'
p4575
tp4576
Rp4577
sg25
I2
sg26
I2
sg27
g161
ssS'5-02'
p4578
(dp4579
g13
I5
sg14
g15
(g19
S'\x03\x00\x00\x00\x00\x00\x00\x00'
p4580
tp4581
Rp4582
sg25
I1
sg26
I2
sg27
g115
ssS'5-03'
p4583
(dp4584
g13
I5
sg14
g15
(g19
S'\x02\x00\x00\x00\x00\x00\x00\x00'
p4585
tp4586
Rp4587
sg25
I1
sg26
I2
sg27
g28
ssS'5-00'
p4588
(dp4589
g13
I5
sg14
g15
(g19
S'\x05\x00\x00\x00\x00\x00\x00\x00'
p4590
tp4591
Rp4592
sg25
I1
sg26
I2
sg27
g59
ssS'6-02'
p4593
(dp4594
g13
I6
sg14
g15
(g19
S'\x03\x00\x00\x00\x00\x00\x00\x00'
p4595
tp4596
Rp4597
sg25
I2
sg26
I2
sg27
g115
ssS'8-00'
p4598
(dp4599
g13
I8
sg14
g15
(g19
S'\x05\x00\x00\x00\x00\x00\x00\x00'
p4600
tp4601
Rp4602
sg25
I1
sg26
I3
sg27
g28
ssS'1-00'
p4603
(dp4604
g13
I1
sg14
g15
(g19
S'\x05\x00\x00\x00\x00\x00\x00\x00'
p4605
tp4606
Rp4607
sg25
I0
sg26
I1
sg27
g28
ssS'5-01'
p4608
(dp4609
g13
I5
sg14
g15
(g19
S'\x04\x00\x00\x00\x00\x00\x00\x00'
p4610
tp4611
Rp4612
sg25
I1
sg26
I2
sg27
g59
ssS'7-00'
p4613
(dp4614
g13
I7
sg14
g15
(g19
S'\x05\x00\x00\x00\x00\x00\x00\x00'
p4615
tp4616
Rp4617
sg25
I0
sg26
I3
sg27
g28
ssS'3-00'
p4618
(dp4619
g13
I3
sg14
g15
(g19
S'\x05\x00\x00\x00\x00\x00\x00\x00'
p4620
tp4621
Rp4622
sg25
I2
sg26
I1
sg27
g115
ssS'2-00'
p4623
(dp4624
g13
I2
sg14
g15
(g19
S'\x05\x00\x00\x00\x00\x00\x00\x00'
p4625
tp4626
Rp4627
sg25
I1
sg26
I1
sg27
g115
ssS'4-01'
p4628
(dp4629
g13
I4
sg14
g15
(g19
S'\x04\x00\x00\x00\x00\x00\x00\x00'
p4630
tp4631
Rp4632
sg25
I0
sg26
I2
sg27
g28
ssS'4-00'
p4633
(dp4634
g13
I4
sg14
g15
(g19
S'\x04\x00\x00\x00\x00\x00\x00\x00'
p4635
tp4636
Rp4637
sg25
I0
sg26
I2
sg27
g28
sssg192
g193
sg194
g193
sg195
(dp4638
g4558
(dp4639
S'7-00'
p4640
(dp4641
ssg4563
(dp4642
S'1-00'
p4643
(dp4644
ssg4568
(dp4645
S'7-00'
p4646
(dp4647
ssg4573
(dp4648
S'7-00'
p4649
(dp4650
ssg4578
(dp4651
S'6-02'
p4652
(dp4653
ssg4583
(dp4654
S'6-03'
p4655
(dp4656
ssg4588
(dp4657
S'6-00'
p4658
(dp4659
ssg4593
(dp4660
S'7-00'
p4661
(dp4662
ssg4598
(dp4663
sg4603
(dp4664
S'2-00'
p4665
(dp4666
ssg4608
(dp4667
S'6-01'
p4668
(dp4669
ssg4613
(dp4670
S'8-00'
p4671
(dp4672
ssg4618
(dp4673
S'4-01'
p4674
(dp4675
sS'4-00'
p4676
(dp4677
ssg4623
(dp4678
S'3-00'
p4679
(dp4680
ssg4628
(dp4681
S'5-02'
p4682
(dp4683
sS'5-00'
p4684
(dp4685
sS'5-01'
p4686
(dp4687
ssg4633
(dp4688
S'5-03'
p4689
(dp4690
sS'5-00'
p4691
(dp4692
sssg338
g4638
sg339
(dp4693
sg341
g193
sg342
g4638
sg343
(dp4694
g4558
(dp4695
S'5-03'
p4696
g4656
ssg4563
(dp4697
sg4568
(dp4698
S'5-01'
p4699
g4669
ssg4573
(dp4700
S'5-00'
p4701
g4659
ssg4578
(dp4702
S'4-01'
p4703
g4683
ssg4583
(dp4704
S'4-00'
p4705
g4690
ssg4588
(dp4706
S'4-01'
p4707
g4685
sS'4-00'
p4708
g4692
ssg4593
(dp4709
S'5-02'
p4710
g4653
ssg4598
(dp4711
S'7-00'
p4712
g4672
ssg4603
(dp4713
S'0-00'
p4714
g4644
ssg4608
(dp4715
S'4-01'
p4716
g4687
ssg4613
(dp4717
S'6-03'
p4718
g4641
sS'6-02'
p4719
g4662
sS'6-01'
p4720
g4647
sS'6-00'
p4721
g4650
ssg4618
(dp4722
S'2-00'
p4723
g4680
ssg4623
(dp4724
S'1-00'
p4725
g4666
ssg4628
(dp4726
S'3-00'
p4727
g4675
ssg4633
(dp4728
S'3-00'
p4729
g4677
sssbsg432
S'jose'
p4730
sg434
I00
sg435
S'B3'
p4731
sa(dp4732
g2
g3
(g4
g5
Ntp4733
Rp4734
(dp4735
g9
(dp4736
S'0-00'
p4737
(dp4738
g13
I0
sg14
g15
(g19
S'\x05\x00\x00\x00\x00\x00\x00\x00'
p4739
tp4740
Rp4741
sg25
I2
sg26
I0
sg27
NssS'6-01'
p4742
(dp4743
g13
I6
sg14
g15
(g19
S'\x04\x00\x00\x00\x00\x00\x00\x00'
p4744
tp4745
Rp4746
sg25
I2
sg26
I2
sg27
g161
ssS'6-00'
p4747
(dp4748
g13
I6
sg14
g15
(g19
S'\x05\x00\x00\x00\x00\x00\x00\x00'
p4749
tp4750
Rp4751
sg25
I2
sg26
I2
sg27
g161
ssS'5-02'
p4752
(dp4753
g13
I5
sg14
g15
(g19
S'\x03\x00\x00\x00\x00\x00\x00\x00'
p4754
tp4755
Rp4756
sg25
I1
sg26
I2
sg27
g28
ssS'5-00'
p4757
(dp4758
g13
I5
sg14
g15
(g19
S'\x05\x00\x00\x00\x00\x00\x00\x00'
p4759
tp4760
Rp4761
sg25
I1
sg26
I2
sg27
g59
ssS'5-01'
p4762
(dp4763
g13
I5
sg14
g15
(g19
S'\x03\x00\x00\x00\x00\x00\x00\x00'
p4764
tp4765
Rp4766
sg25
I1
sg26
I2
sg27
g28
ssS'8-00'
p4767
(dp4768
g13
I8
sg14
g15
(g19
S'\x05\x00\x00\x00\x00\x00\x00\x00'
p4769
tp4770
Rp4771
sg25
I1
sg26
I3
sg27
g28
ssS'1-00'
p4772
(dp4773
g13
I1
sg14
g15
(g19
S'\x05\x00\x00\x00\x00\x00\x00\x00'
p4774
tp4775
Rp4776
sg25
I0
sg26
I1
sg27
NssS'7-00'
p4777
(dp4778
g13
I7
sg14
g15
(g19
S'\x05\x00\x00\x00\x00\x00\x00\x00'
p4779
tp4780
Rp4781
sg25
I0
sg26
I3
sg27
g28
ssS'3-00'
p4782
(dp4783
g13
I3
sg14
g15
(g19
S'\x05\x00\x00\x00\x00\x00\x00\x00'
p4784
tp4785
Rp4786
sg25
I2
sg26
I1
sg27
NssS'2-00'
p4787
(dp4788
g13
I2
sg14
g15
(g19
S'\x05\x00\x00\x00\x00\x00\x00\x00'
p4789
tp4790
Rp4791
sg25
I1
sg26
I1
sg27
NssS'4-00'
p4792
(dp4793
g13
I4
sg14
g15
(g19
S'\x05\x00\x00\x00\x00\x00\x00\x00'
p4794
tp4795
Rp4796
sg25
I0
sg26
I2
sg27
g28
sssg192
g193
sg194
g193
sg195
(dp4797
g4737
(dp4798
S'1-00'
p4799
(dp4800
ssg4742
(dp4801
S'7-00'
p4802
(dp4803
ssg4747
(dp4804
S'7-00'
p4805
(dp4806
ssg4752
(dp4807
S'6-00'
p4808
(dp4809
ssg4757
(dp4810
S'6-01'
p4811
(dp4812
sS'6-00'
p4813
(dp4814
ssg4762
(dp4815
S'6-00'
p4816
(dp4817
ssg4767
(dp4818
sg4772
(dp4819
S'2-00'
p4820
(dp4821
ssg4777
(dp4822
S'8-00'
p4823
(dp4824
ssg4782
(dp4825
S'4-00'
p4826
(dp4827
ssg4787
(dp4828
S'3-00'
p4829
(dp4830
ssg4792
(dp4831
S'5-02'
p4832
(dp4833
sS'5-00'
p4834
(dp4835
sS'5-01'
p4836
(dp4837
sssg338
g4797
sg339
(dp4838
sg341
g193
sg342
g4797
sg343
(dp4839
g4737
(dp4840
sg4742
(dp4841
S'5-00'
p4842
g4812
ssg4747
(dp4843
S'5-02'
p4844
g4809
sS'5-00'
p4845
g4814
sS'5-01'
p4846
g4817
ssg4752
(dp4847
S'4-00'
p4848
g4833
ssg4757
(dp4849
S'4-00'
p4850
g4835
ssg4762
(dp4851
S'4-00'
p4852
g4837
ssg4767
(dp4853
S'7-00'
p4854
g4824
ssg4772
(dp4855
S'0-00'
p4856
g4800
ssg4777
(dp4857
S'6-01'
p4858
g4803
sS'6-00'
p4859
g4806
ssg4782
(dp4860
S'2-00'
p4861
g4830
ssg4787
(dp4862
S'1-00'
p4863
g4821
ssg4792
(dp4864
S'3-00'
p4865
g4827
sssbsg432
S'kent'
p4866
sg434
I00
sg435
S'D3'
p4867
sa(dp4868
g2
g3
(g4
g5
Ntp4869
Rp4870
(dp4871
g9
(dp4872
S'0-00'
p4873
(dp4874
g13
I0
sg14
g15
(g19
S'\x05\x00\x00\x00\x00\x00\x00\x00'
p4875
tp4876
Rp4877
sg25
I2
sg26
I0
sg27
NssS'6-01'
p4878
(dp4879
g13
I6
sg14
g15
(g19
S'\x04\x00\x00\x00\x00\x00\x00\x00'
p4880
tp4881
Rp4882
sg25
I2
sg26
I2
sg27
g161
ssS'6-00'
p4883
(dp4884
g13
I6
sg14
g15
(g19
S'\x05\x00\x00\x00\x00\x00\x00\x00'
p4885
tp4886
Rp4887
sg25
I2
sg26
I2
sg27
g161
ssS'5-02'
p4888
(dp4889
g13
I5
sg14
g15
(g19
S'\x04\x00\x00\x00\x00\x00\x00\x00'
p4890
tp4891
Rp4892
sg25
I1
sg26
I2
sg27
g59
ssS'5-00'
p4893
(dp4894
g13
I5
sg14
g15
(g19
S'\x05\x00\x00\x00\x00\x00\x00\x00'
p4895
tp4896
Rp4897
sg25
I1
sg26
I2
sg27
g59
ssS'5-01'
p4898
(dp4899
g13
I5
sg14
g15
(g19
S'\x03\x00\x00\x00\x00\x00\x00\x00'
p4900
tp4901
Rp4902
sg25
I1
sg26
I2
sg27
g59
ssS'8-00'
p4903
(dp4904
g13
I8
sg14
g15
(g19
S'\x05\x00\x00\x00\x00\x00\x00\x00'
p4905
tp4906
Rp4907
sg25
I1
sg26
I3
sg27
NssS'1-00'
p4908
(dp4909
g13
I1
sg14
g15
(g19
S'\x05\x00\x00\x00\x00\x00\x00\x00'
p4910
tp4911
Rp4912
sg25
I0
sg26
I1
sg27
NssS'7-00'
p4913
(dp4914
g13
I7
sg14
g15
(g19
S'\x05\x00\x00\x00\x00\x00\x00\x00'
p4915
tp4916
Rp4917
sg25
I0
sg26
I3
sg27
NssS'3-00'
p4918
(dp4919
g13
I3
sg14
g15
(g19
S'\x05\x00\x00\x00\x00\x00\x00\x00'
p4920
tp4921
Rp4922
sg25
I2
sg26
I1
sg27
g28
ssS'2-00'
p4923
(dp4924
g13
I2
sg14
g15
(g19
S'\x05\x00\x00\x00\x00\x00\x00\x00'
p4925
tp4926
Rp4927
sg25
I1
sg26
I1
sg27
NssS'4-00'
p4928
(dp4929
g13
I4
sg14
g15
(g19
S'\x05\x00\x00\x00\x00\x00\x00\x00'
p4930
tp4931
Rp4932
sg25
I0
sg26
I2
sg27
g28
sssg192
g193
sg194
g193
sg195
(dp4933
g4873
(dp4934
S'1-00'
p4935
(dp4936
ssg4878
(dp4937
S'7-00'
p4938
(dp4939
ssg4883
(dp4940
S'7-00'
p4941
(dp4942
ssg4888
(dp4943
S'6-01'
p4944
(dp4945
ssg4893
(dp4946
S'6-00'
p4947
(dp4948
ssg4898
(dp4949
S'6-00'
p4950
(dp4951
ssg4903
(dp4952
sg4908
(dp4953
S'2-00'
p4954
(dp4955
ssg4913
(dp4956
S'8-00'
p4957
(dp4958
ssg4918
(dp4959
S'4-00'
p4960
(dp4961
ssg4923
(dp4962
S'3-00'
p4963
(dp4964
ssg4928
(dp4965
S'5-02'
p4966
(dp4967
sS'5-00'
p4968
(dp4969
sS'5-01'
p4970
(dp4971
sssg338
g4933
sg339
(dp4972
sg341
g193
sg342
g4933
sg343
(dp4973
g4873
(dp4974
sg4878
(dp4975
S'5-02'
p4976
g4945
ssg4883
(dp4977
S'5-00'
p4978
g4948
sS'5-01'
p4979
g4951
ssg4888
(dp4980
S'4-00'
p4981
g4967
ssg4893
(dp4982
S'4-00'
p4983
g4969
ssg4898
(dp4984
S'4-00'
p4985
g4971
ssg4903
(dp4986
S'7-00'
p4987
g4958
ssg4908
(dp4988
S'0-00'
p4989
g4936
ssg4913
(dp4990
S'6-01'
p4991
g4939
sS'6-00'
p4992
g4942
ssg4918
(dp4993
S'2-00'
p4994
g4964
ssg4923
(dp4995
S'1-00'
p4996
g4955
ssg4928
(dp4997
S'3-00'
p4998
g4961
sssbsg432
S'kent'
p4999
sg434
I01
sg435
S'D4'
p5000
sa(dp5001
g2
g3
(g4
g5
Ntp5002
Rp5003
(dp5004
g9
(dp5005
S'0-00'
p5006
(dp5007
g13
I0
sg14
g15
(g19
S'\x05\x00\x00\x00\x00\x00\x00\x00'
p5008
tp5009
Rp5010
sg25
I2
sg26
I0
sg27
NssS'6-01'
p5011
(dp5012
g13
I6
sg14
g15
(g19
S'\x03\x00\x00\x00\x00\x00\x00\x00'
p5013
tp5014
Rp5015
sg25
I2
sg26
I2
sg27
g59
ssS'6-02'
p5016
(dp5017
g13
I6
sg14
g15
(g19
S'\x03\x00\x00\x00\x00\x00\x00\x00'
p5018
tp5019
Rp5020
sg25
I2
sg26
I2
sg27
g59
ssS'5-00'
p5021
(dp5022
g13
I5
sg14
g15
(g19
S'\x05\x00\x00\x00\x00\x00\x00\x00'
p5023
tp5024
Rp5025
sg25
I1
sg26
I2
sg27
g161
ssS'5-01'
p5026
(dp5027
g13
I5
sg14
g15
(g19
S'\x02\x00\x00\x00\x00\x00\x00\x00'
p5028
tp5029
Rp5030
sg25
I1
sg26
I2
sg27
g28
ssS'8-00'
p5031
(dp5032
g13
I8
sg14
g15
(g19
S'\x05\x00\x00\x00\x00\x00\x00\x00'
p5033
tp5034
Rp5035
sg25
I1
sg26
I3
sg27
NssS'1-00'
p5036
(dp5037
g13
I1
sg14
g15
(g19
S'\x05\x00\x00\x00\x00\x00\x00\x00'
p5038
tp5039
Rp5040
sg25
I0
sg26
I1
sg27
NssS'7-00'
p5041
(dp5042
g13
I7
sg14
g15
(g19
S'\x05\x00\x00\x00\x00\x00\x00\x00'
p5043
tp5044
Rp5045
sg25
I0
sg26
I3
sg27
NssS'3-00'
p5046
(dp5047
g13
I3
sg14
g15
(g19
S'\x05\x00\x00\x00\x00\x00\x00\x00'
p5048
tp5049
Rp5050
sg25
I2
sg26
I1
sg27
g28
ssS'6-00'
p5051
(dp5052
g13
I6
sg14
g15
(g19
S'\x05\x00\x00\x00\x00\x00\x00\x00'
p5053
tp5054
Rp5055
sg25
I2
sg26
I2
sg27
g161
ssS'4-08'
p5056
(dp5057
g13
I4
sg14
g15
(g19
S'\x02\x00\x00\x00\x00\x00\x00\x00'
p5058
tp5059
Rp5060
sg25
I0
sg26
I2
sg27
g115
ssS'2-00'
p5061
(dp5062
g13
I2
sg14
g15
(g19
S'\x05\x00\x00\x00\x00\x00\x00\x00'
p5063
tp5064
Rp5065
sg25
I1
sg26
I1
sg27
g28
ssS'4-05'
p5066
(dp5067
g13
I4
sg14
g15
(g19
S'\x02\x00\x00\x00\x00\x00\x00\x00'
p5068
tp5069
Rp5070
sg25
I0
sg26
I2
sg27
g115
ssS'4-04'
p5071
(dp5072
g13
I4
sg14
g15
(g19
S'\x02\x00\x00\x00\x00\x00\x00\x00'
p5073
tp5074
Rp5075
sg25
I0
sg26
I2
sg27
g115
ssS'4-07'
p5076
(dp5077
g13
I4
sg14
g15
(g19
S'\x02\x00\x00\x00\x00\x00\x00\x00'
p5078
tp5079
Rp5080
sg25
I0
sg26
I2
sg27
g115
ssS'4-06'
p5081
(dp5082
g13
I4
sg14
g15
(g19
S'\x02\x00\x00\x00\x00\x00\x00\x00'
p5083
tp5084
Rp5085
sg25
I0
sg26
I2
sg27
g115
ssS'4-01'
p5086
(dp5087
g13
I4
sg14
g15
(g19
S'\x02\x00\x00\x00\x00\x00\x00\x00'
p5088
tp5089
Rp5090
sg25
I0
sg26
I2
sg27
g115
ssS'4-00'
p5091
(dp5092
g13
I4
sg14
g15
(g19
S'\x05\x00\x00\x00\x00\x00\x00\x00'
p5093
tp5094
Rp5095
sg25
I0
sg26
I2
sg27
g28
ssS'4-03'
p5096
(dp5097
g13
I4
sg14
g15
(g19
S'\x02\x00\x00\x00\x00\x00\x00\x00'
p5098
tp5099
Rp5100
sg25
I0
sg26
I2
sg27
g115
ssS'4-02'
p5101
(dp5102
g13
I4
sg14
g15
(g19
S'\x02\x00\x00\x00\x00\x00\x00\x00'
p5103
tp5104
Rp5105
sg25
I0
sg26
I2
sg27
g115
sssg192
g193
sg194
g193
sg195
(dp5106
g5006
(dp5107
S'1-00'
p5108
(dp5109
ssg5011
(dp5110
S'7-00'
p5111
(dp5112
ssg5016
(dp5113
S'7-00'
p5114
(dp5115
ssg5021
(dp5116
S'6-02'
p5117
(dp5118
sS'6-01'
p5119
(dp5120
sS'6-00'
p5121
(dp5122
ssg5026
(dp5123
S'6-00'
p5124
(dp5125
ssg5031
(dp5126
sg5036
(dp5127
S'2-00'
p5128
(dp5129
ssg5041
(dp5130
S'8-00'
p5131
(dp5132
ssg5046
(dp5133
S'4-08'
p5134
(dp5135
sS'4-05'
p5136
(dp5137
sS'4-04'
p5138
(dp5139
sS'4-07'
p5140
(dp5141
sS'4-06'
p5142
(dp5143
sS'4-01'
p5144
(dp5145
sS'4-00'
p5146
(dp5147
sS'4-03'
p5148
(dp5149
sS'4-02'
p5150
(dp5151
ssg5051
(dp5152
S'7-00'
p5153
(dp5154
ssg5056
(dp5155
S'5-00'
p5156
(dp5157
ssg5061
(dp5158
S'3-00'
p5159
(dp5160
ssg5066
(dp5161
S'5-00'
p5162
(dp5163
ssg5071
(dp5164
S'5-00'
p5165
(dp5166
ssg5076
(dp5167
S'5-00'
p5168
(dp5169
ssg5081
(dp5170
S'5-00'
p5171
(dp5172
ssg5086
(dp5173
S'5-00'
p5174
(dp5175
ssg5091
(dp5176
S'5-00'
p5177
(dp5178
sS'5-01'
p5179
(dp5180
ssg5096
(dp5181
S'5-00'
p5182
(dp5183
ssg5101
(dp5184
S'5-00'
p5185
(dp5186
sssg338
g5106
sg339
(dp5187
sg341
g193
sg342
g5106
sg343
(dp5188
g5006
(dp5189
sg5011
(dp5190
S'5-00'
p5191
g5120
ssg5016
(dp5192
S'5-00'
p5193
g5118
ssg5021
(dp5194
S'4-08'
p5195
g5157
sS'4-05'
p5196
g5163
sS'4-04'
p5197
g5166
sS'4-07'
p5198
g5169
sS'4-06'
p5199
g5172
sS'4-01'
p5200
g5175
sS'4-00'
p5201
g5178
sS'4-03'
p5202
g5183
sS'4-02'
p5203
g5186
ssg5026
(dp5204
S'4-00'
p5205
g5180
ssg5031
(dp5206
S'7-00'
p5207
g5132
ssg5036
(dp5208
S'0-00'
p5209
g5109
ssg5041
(dp5210
S'6-02'
p5211
g5115
sS'6-01'
p5212
g5112
sS'6-00'
p5213
g5154
ssg5046
(dp5214
S'2-00'
p5215
g5160
ssg5051
(dp5216
S'5-00'
p5217
g5122
sS'5-01'
p5218
g5125
ssg5056
(dp5219
S'3-00'
p5220
g5135
ssg5061
(dp5221
S'1-00'
p5222
g5129
ssg5066
(dp5223
S'3-00'
p5224
g5137
ssg5071
(dp5225
S'3-00'
p5226
g5139
ssg5076
(dp5227
S'3-00'
p5228
g5141
ssg5081
(dp5229
S'3-00'
p5230
g5143
ssg5086
(dp5231
S'3-00'
p5232
g5145
ssg5091
(dp5233
S'3-00'
p5234
g5147
ssg5096
(dp5235
S'3-00'
p5236
g5149
ssg5101
(dp5237
S'3-00'
p5238
g5151
sssbsg432
S'kent'
p5239
sg434
I01
sg435
S'H11'
p5240
sa(dp5241
g2
g3
(g4
g5
Ntp5242
Rp5243
(dp5244
g9
(dp5245
S'6-03'
p5246
(dp5247
g13
I6
sg14
g15
(g19
S'\x04\x00\x00\x00\x00\x00\x00\x00'
p5248
tp5249
Rp5250
sg25
I2
sg26
I2
sg27
g161
ssS'0-00'
p5251
(dp5252
g13
I0
sg14
g15
(g19
S'\x05\x00\x00\x00\x00\x00\x00\x00'
p5253
tp5254
Rp5255
sg25
I2
sg26
I0
sg27
NssS'6-01'
p5256
(dp5257
g13
I6
sg14
g15
(g19
S'\x04\x00\x00\x00\x00\x00\x00\x00'
p5258
tp5259
Rp5260
sg25
I2
sg26
I2
sg27
g115
ssS'6-02'
p5261
(dp5262
g13
I6
sg14
g15
(g19
S'\x04\x00\x00\x00\x00\x00\x00\x00'
p5263
tp5264
Rp5265
sg25
I2
sg26
I2
sg27
g115
ssS'5-00'
p5266
(dp5267
g13
I5
sg14
g15
(g19
S'\x05\x00\x00\x00\x00\x00\x00\x00'
p5268
tp5269
Rp5270
sg25
I1
sg26
I2
sg27
g59
ssS'5-01'
p5271
(dp5272
g13
I5
sg14
g15
(g19
S'\x04\x00\x00\x00\x00\x00\x00\x00'
p5273
tp5274
Rp5275
sg25
I1
sg26
I2
sg27
g115
ssS'8-00'
p5276
(dp5277
g13
I8
sg14
g15
(g19
S'\x05\x00\x00\x00\x00\x00\x00\x00'
p5278
tp5279
Rp5280
sg25
I1
sg26
I3
sg27
NssS'1-00'
p5281
(dp5282
g13
I1
sg14
g15
(g19
S'\x05\x00\x00\x00\x00\x00\x00\x00'
p5283
tp5284
Rp5285
sg25
I0
sg26
I1
sg27
NssS'6-04'
p5286
(dp5287
g13
I6
sg14
g15
(g19
S'\x03\x00\x00\x00\x00\x00\x00\x00'
p5288
tp5289
Rp5290
sg25
I2
sg26
I2
sg27
g115
ssS'7-00'
p5291
(dp5292
g13
I7
sg14
g15
(g19
S'\x05\x00\x00\x00\x00\x00\x00\x00'
p5293
tp5294
Rp5295
sg25
I0
sg26
I3
sg27
NssS'3-00'
p5296
(dp5297
g13
I3
sg14
g15
(g19
S'\x05\x00\x00\x00\x00\x00\x00\x00'
p5298
tp5299
Rp5300
sg25
I2
sg26
I1
sg27
g28
ssS'3-01'
p5301
(dp5302
g13
I3
sg14
g15
(g19
S'\x03\x00\x00\x00\x00\x00\x00\x00'
p5303
tp5304
Rp5305
sg25
I2
sg26
I1
sg27
g161
ssS'3-02'
p5306
(dp5307
g13
I3
sg14
g15
(g19
S'\x03\x00\x00\x00\x00\x00\x00\x00'
p5308
tp5309
Rp5310
sg25
I2
sg26
I1
sg27
g161
ssS'6-00'
p5311
(dp5312
g13
I6
sg14
g15
(g19
S'\x05\x00\x00\x00\x00\x00\x00\x00'
p5313
tp5314
Rp5315
sg25
I2
sg26
I2
sg27
g161
ssS'2-02'
p5316
(dp5317
g13
I2
sg14
g15
(g19
S'\x03\x00\x00\x00\x00\x00\x00\x00'
p5318
tp5319
Rp5320
sg25
I1
sg26
I1
sg27
g161
ssS'2-01'
p5321
(dp5322
g13
I2
sg14
g15
(g19
S'\x03\x00\x00\x00\x00\x00\x00\x00'
p5323
tp5324
Rp5325
sg25
I1
sg26
I1
sg27
g161
ssS'2-00'
p5326
(dp5327
g13
I2
sg14
g15
(g19
S'\x05\x00\x00\x00\x00\x00\x00\x00'
p5328
tp5329
Rp5330
sg25
I1
sg26
I1
sg27
g28
ssS'4-01'
p5331
(dp5332
g13
I4
sg14
g15
(g19
S'\x03\x00\x00\x00\x00\x00\x00\x00'
p5333
tp5334
Rp5335
sg25
I0
sg26
I2
sg27
g115
ssS'4-00'
p5336
(dp5337
g13
I4
sg14
g15
(g19
S'\x05\x00\x00\x00\x00\x00\x00\x00'
p5338
tp5339
Rp5340
sg25
I0
sg26
I2
sg27
g28
sssg192
g193
sg194
g193
sg195
(dp5341
g5246
(dp5342
S'7-00'
p5343
(dp5344
ssg5251
(dp5345
S'1-00'
p5346
(dp5347
ssg5256
(dp5348
S'7-00'
p5349
(dp5350
ssg5261
(dp5351
S'7-00'
p5352
(dp5353
ssg5266
(dp5354
S'6-03'
p5355
(dp5356
sS'6-02'
p5357
(dp5358
sS'6-00'
p5359
(dp5360
sS'6-04'
p5361
(dp5362
ssg5271
(dp5363
S'6-01'
p5364
(dp5365
ssg5276
(dp5366
sg5281
(dp5367
S'2-02'
p5368
(dp5369
sS'2-01'
p5370
(dp5371
sS'2-00'
p5372
(dp5373
ssg5286
(dp5374
S'7-00'
p5375
(dp5376
ssg5291
(dp5377
S'8-00'
p5378
(dp5379
ssg5296
(dp5380
S'4-01'
p5381
(dp5382
sS'4-00'
p5383
(dp5384
ssg5301
(dp5385
S'4-00'
p5386
(dp5387
ssg5306
(dp5388
S'4-00'
p5389
(dp5390
ssg5311
(dp5391
S'7-00'
p5392
(dp5393
ssg5316
(dp5394
S'3-02'
p5395
(dp5396
ssg5321
(dp5397
S'3-01'
p5398
(dp5399
ssg5326
(dp5400
S'3-00'
p5401
(dp5402
ssg5331
(dp5403
S'5-00'
p5404
(dp5405
ssg5336
(dp5406
S'5-00'
p5407
(dp5408
sS'5-01'
p5409
(dp5410
sssg338
g5341
sg339
(dp5411
sg341
g193
sg342
g5341
sg343
(dp5412
g5246
(dp5413
S'5-00'
p5414
g5356
ssg5251
(dp5415
sg5256
(dp5416
S'5-01'
p5417
g5365
ssg5261
(dp5418
S'5-00'
p5419
g5358
ssg5266
(dp5420
S'4-01'
p5421
g5405
sS'4-00'
p5422
g5408
ssg5271
(dp5423
S'4-00'
p5424
g5410
ssg5276
(dp5425
S'7-00'
p5426
g5379
ssg5281
(dp5427
S'0-00'
p5428
g5347
ssg5286
(dp5429
S'5-00'
p5430
g5362
ssg5291
(dp5431
S'6-03'
p5432
g5344
sS'6-02'
p5433
g5353
sS'6-01'
p5434
g5350
sS'6-00'
p5435
g5393
sS'6-04'
p5436
g5376
ssg5296
(dp5437
S'2-00'
p5438
g5402
ssg5301
(dp5439
S'2-01'
p5440
g5399
ssg5306
(dp5441
S'2-02'
p5442
g5396
ssg5311
(dp5443
S'5-00'
p5444
g5360
ssg5316
(dp5445
S'1-00'
p5446
g5369
ssg5321
(dp5447
S'1-00'
p5448
g5371
ssg5326
(dp5449
S'1-00'
p5450
g5373
ssg5331
(dp5451
S'3-00'
p5452
g5382
ssg5336
(dp5453
S'3-00'
p5454
g5384
sS'3-01'
p5455
g5387
sS'3-02'
p5456
g5390
sssbsg432
S'kent'
p5457
sg434
I00
sg435
S'H12'
p5458
sa(dp5459
g2
g3
(g4
g5
Ntp5460
Rp5461
(dp5462
g9
(dp5463
S'0-00'
p5464
(dp5465
g13
I0
sg14
g15
(g19
S'\x05\x00\x00\x00\x00\x00\x00\x00'
p5466
tp5467
Rp5468
sg25
I2
sg26
I0
sg27
NssS'6-01'
p5469
(dp5470
g13
I6
sg14
g15
(g19
S'\x03\x00\x00\x00\x00\x00\x00\x00'
p5471
tp5472
Rp5473
sg25
I2
sg26
I2
sg27
g115
ssS'6-02'
p5474
(dp5475
g13
I6
sg14
g15
(g19
S'\x04\x00\x00\x00\x00\x00\x00\x00'
p5476
tp5477
Rp5478
sg25
I2
sg26
I2
sg27
g59
ssS'5-02'
p5479
(dp5480
g13
I5
sg14
g15
(g19
S'\x04\x00\x00\x00\x00\x00\x00\x00'
p5481
tp5482
Rp5483
sg25
I1
sg26
I2
sg27
g59
ssS'5-00'
p5484
(dp5485
g13
I5
sg14
g15
(g19
S'\x05\x00\x00\x00\x00\x00\x00\x00'
p5486
tp5487
Rp5488
sg25
I1
sg26
I2
sg27
g59
ssS'5-01'
p5489
(dp5490
g13
I5
sg14
g15
(g19
S'\x02\x00\x00\x00\x00\x00\x00\x00'
p5491
tp5492
Rp5493
sg25
I1
sg26
I2
sg27
g28
ssS'8-00'
p5494
(dp5495
g13
I8
sg14
g15
(g19
S'\x05\x00\x00\x00\x00\x00\x00\x00'
p5496
tp5497
Rp5498
sg25
I1
sg26
I3
sg27
NssS'1-00'
p5499
(dp5500
g13
I1
sg14
g15
(g19
S'\x05\x00\x00\x00\x00\x00\x00\x00'
p5501
tp5502
Rp5503
sg25
I0
sg26
I1
sg27
NssS'7-00'
p5504
(dp5505
g13
I7
sg14
g15
(g19
S'\x05\x00\x00\x00\x00\x00\x00\x00'
p5506
tp5507
Rp5508
sg25
I0
sg26
I3
sg27
NssS'3-00'
p5509
(dp5510
g13
I3
sg14
g15
(g19
S'\x05\x00\x00\x00\x00\x00\x00\x00'
p5511
tp5512
Rp5513
sg25
I2
sg26
I1
sg27
NssS'6-00'
p5514
(dp5515
g13
I6
sg14
g15
(g19
S'\x05\x00\x00\x00\x00\x00\x00\x00'
p5516
tp5517
Rp5518
sg25
I2
sg26
I2
sg27
g161
ssS'2-00'
p5519
(dp5520
g13
I2
sg14
g15
(g19
S'\x05\x00\x00\x00\x00\x00\x00\x00'
p5521
tp5522
Rp5523
sg25
I1
sg26
I1
sg27
NssS'4-00'
p5524
(dp5525
g13
I4
sg14
g15
(g19
S'\x05\x00\x00\x00\x00\x00\x00\x00'
p5526
tp5527
Rp5528
sg25
I0
sg26
I2
sg27
g28
sssg192
g193
sg194
g193
sg195
(dp5529
g5464
(dp5530
S'1-00'
p5531
(dp5532
ssg5469
(dp5533
S'7-00'
p5534
(dp5535
ssg5474
(dp5536
S'7-00'
p5537
(dp5538
ssg5479
(dp5539
S'6-02'
p5540
(dp5541
ssg5484
(dp5542
S'6-01'
p5543
(dp5544
sS'6-00'
p5545
(dp5546
ssg5489
(dp5547
S'6-00'
p5548
(dp5549
ssg5494
(dp5550
sg5499
(dp5551
S'2-00'
p5552
(dp5553
ssg5504
(dp5554
S'8-00'
p5555
(dp5556
ssg5509
(dp5557
S'4-00'
p5558
(dp5559
ssg5514
(dp5560
S'7-00'
p5561
(dp5562
ssg5519
(dp5563
S'3-00'
p5564
(dp5565
ssg5524
(dp5566
S'5-02'
p5567
(dp5568
sS'5-00'
p5569
(dp5570
sS'5-01'
p5571
(dp5572
sssg338
g5529
sg339
(dp5573
sg341
g193
sg342
g5529
sg343
(dp5574
g5464
(dp5575
sg5469
(dp5576
S'5-00'
p5577
g5544
ssg5474
(dp5578
S'5-02'
p5579
g5541
ssg5479
(dp5580
S'4-00'
p5581
g5568
ssg5484
(dp5582
S'4-00'
p5583
g5570
ssg5489
(dp5584
S'4-00'
p5585
g5572
ssg5494
(dp5586
S'7-00'
p5587
g5556
ssg5499
(dp5588
S'0-00'
p5589
g5532
ssg5504
(dp5590
S'6-02'
p5591
g5538
sS'6-01'
p5592
g5535
sS'6-00'
p5593
g5562
ssg5509
(dp5594
S'2-00'
p5595
g5565
ssg5514
(dp5596
S'5-00'
p5597
g5546
sS'5-01'
p5598
g5549
ssg5519
(dp5599
S'1-00'
p5600
g5553
ssg5524
(dp5601
S'3-00'
p5602
g5559
sssbsg432
S'kent'
p5603
sg434
I01
sg435
S'H14'
p5604
sa(dp5605
g2
g3
(g4
g5
Ntp5606
Rp5607
(dp5608
g9
(dp5609
S'5-06'
p5610
(dp5611
g13
I5
sg14
g15
(g19
S'\x03\x00\x00\x00\x00\x00\x00\x00'
p5612
tp5613
Rp5614
sg25
I1
sg26
I2
sg27
g115
ssS'0-00'
p5615
(dp5616
g13
I0
sg14
g15
(g19
S'\x05\x00\x00\x00\x00\x00\x00\x00'
p5617
tp5618
Rp5619
sg25
I2
sg26
I0
sg27
NssS'5-04'
p5620
(dp5621
g13
I5
sg14
g15
(g19
S'\x02\x00\x00\x00\x00\x00\x00\x00'
p5622
tp5623
Rp5624
sg25
I1
sg26
I2
sg27
g28
ssS'5-05'
p5625
(dp5626
g13
I5
sg14
g15
(g19
S'\x03\x00\x00\x00\x00\x00\x00\x00'
p5627
tp5628
Rp5629
sg25
I1
sg26
I2
sg27
g59
ssS'5-02'
p5630
(dp5631
g13
I5
sg14
g15
(g19
S'\x03\x00\x00\x00\x00\x00\x00\x00'
p5632
tp5633
Rp5634
sg25
I1
sg26
I2
sg27
g28
ssS'5-03'
p5635
(dp5636
g13
I5
sg14
g15
(g19
S'\x02\x00\x00\x00\x00\x00\x00\x00'
p5637
tp5638
Rp5639
sg25
I1
sg26
I2
sg27
g28
ssS'5-00'
p5640
(dp5641
g13
I5
sg14
g15
(g19
S'\x05\x00\x00\x00\x00\x00\x00\x00'
p5642
tp5643
Rp5644
sg25
I1
sg26
I2
sg27
g59
ssS'5-01'
p5645
(dp5646
g13
I5
sg14
g15
(g19
S'\x03\x00\x00\x00\x00\x00\x00\x00'
p5647
tp5648
Rp5649
sg25
I1
sg26
I2
sg27
g28
ssS'8-00'
p5650
(dp5651
g13
I8
sg14
g15
(g19
S'\x05\x00\x00\x00\x00\x00\x00\x00'
p5652
tp5653
Rp5654
sg25
I1
sg26
I3
sg27
NssS'1-00'
p5655
(dp5656
g13
I1
sg14
g15
(g19
S'\x05\x00\x00\x00\x00\x00\x00\x00'
p5657
tp5658
Rp5659
sg25
I0
sg26
I1
sg27
NssS'7-00'
p5660
(dp5661
g13
I7
sg14
g15
(g19
S'\x05\x00\x00\x00\x00\x00\x00\x00'
p5662
tp5663
Rp5664
sg25
I0
sg26
I3
sg27
NssS'6-01'
p5665
(dp5666
g13
I6
sg14
g15
(g19
S'\x02\x00\x00\x00\x00\x00\x00\x00'
p5667
tp5668
Rp5669
sg25
I2
sg26
I2
sg27
g28
ssS'4-00'
p5670
(dp5671
g13
I4
sg14
g15
(g19
S'\x05\x00\x00\x00\x00\x00\x00\x00'
p5672
tp5673
Rp5674
sg25
I0
sg26
I2
sg27
g28
ssS'3-00'
p5675
(dp5676
g13
I3
sg14
g15
(g19
S'\x05\x00\x00\x00\x00\x00\x00\x00'
p5677
tp5678
Rp5679
sg25
I2
sg26
I1
sg27
g28
ssS'6-00'
p5680
(dp5681
g13
I6
sg14
g15
(g19
S'\x05\x00\x00\x00\x00\x00\x00\x00'
p5682
tp5683
Rp5684
sg25
I2
sg26
I2
sg27
g59
ssS'2-00'
p5685
(dp5686
g13
I2
sg14
g15
(g19
S'\x05\x00\x00\x00\x00\x00\x00\x00'
p5687
tp5688
Rp5689
sg25
I1
sg26
I1
sg27
g28
ssS'4-01'
p5690
(dp5691
g13
I4
sg14
g15
(g19
S'\x02\x00\x00\x00\x00\x00\x00\x00'
p5692
tp5693
Rp5694
sg25
I0
sg26
I2
sg27
g28
ssS'6-02'
p5695
(dp5696
g13
I6
sg14
g15
(g19
S'\x03\x00\x00\x00\x00\x00\x00\x00'
p5697
tp5698
Rp5699
sg25
I2
sg26
I2
sg27
g115
ssS'4-02'
p5700
(dp5701
g13
I4
sg14
g15
(g19
S'\x02\x00\x00\x00\x00\x00\x00\x00'
p5702
tp5703
Rp5704
sg25
I0
sg26
I2
sg27
g28
sssg192
g193
sg194
g193
sg195
(dp5705
g5610
(dp5706
S'6-02'
p5707
(dp5708
ssg5615
(dp5709
S'1-00'
p5710
(dp5711
ssg5620
(dp5712
S'6-00'
p5713
(dp5714
ssg5625
(dp5715
S'6-00'
p5716
(dp5717
ssg5630
(dp5718
S'6-00'
p5719
(dp5720
ssg5635
(dp5721
S'6-01'
p5722
(dp5723
ssg5640
(dp5724
S'6-00'
p5725
(dp5726
ssg5645
(dp5727
S'6-00'
p5728
(dp5729
ssg5650
(dp5730
sg5655
(dp5731
S'2-00'
p5732
(dp5733
ssg5660
(dp5734
S'8-00'
p5735
(dp5736
ssg5665
(dp5737
S'7-00'
p5738
(dp5739
ssg5670
(dp5740
S'5-06'
p5741
(dp5742
sS'5-05'
p5743
(dp5744
sS'5-02'
p5745
(dp5746
sS'5-00'
p5747
(dp5748
sS'5-01'
p5749
(dp5750
ssg5675
(dp5751
S'4-01'
p5752
(dp5753
sS'4-00'
p5754
(dp5755
sS'4-02'
p5756
(dp5757
ssg5680
(dp5758
S'7-00'
p5759
(dp5760
ssg5685
(dp5761
S'3-00'
p5762
(dp5763
ssg5690
(dp5764
S'5-03'
p5765
(dp5766
ssg5695
(dp5767
S'7-00'
p5768
(dp5769
ssg5700
(dp5770
S'5-04'
p5771
(dp5772
sssg338
g5705
sg339
(dp5773
sg341
g193
sg342
g5705
sg343
(dp5774
g5610
(dp5775
S'4-00'
p5776
g5742
ssg5615
(dp5777
sg5620
(dp5778
S'4-02'
p5779
g5772
ssg5625
(dp5780
S'4-00'
p5781
g5744
ssg5630
(dp5782
S'4-00'
p5783
g5746
ssg5635
(dp5784
S'4-01'
p5785
g5766
ssg5640
(dp5786
S'4-00'
p5787
g5748
ssg5645
(dp5788
S'4-00'
p5789
g5750
ssg5650
(dp5790
S'7-00'
p5791
g5736
ssg5655
(dp5792
S'0-00'
p5793
g5711
ssg5660
(dp5794
S'6-02'
p5795
g5769
sS'6-01'
p5796
g5739
sS'6-00'
p5797
g5760
ssg5665
(dp5798
S'5-03'
p5799
g5723
ssg5670
(dp5800
S'3-00'
p5801
g5755
ssg5675
(dp5802
S'2-00'
p5803
g5763
ssg5680
(dp5804
S'5-04'
p5805
g5714
sS'5-05'
p5806
g5717
sS'5-02'
p5807
g5720
sS'5-00'
p5808
g5726
sS'5-01'
p5809
g5729
ssg5685
(dp5810
S'1-00'
p5811
g5733
ssg5690
(dp5812
S'3-00'
p5813
g5753
ssg5695
(dp5814
S'5-06'
p5815
g5708
ssg5700
(dp5816
S'3-00'
p5817
g5757
sssbsg432
S'namdocmai'
p5818
sg434
I01
sg435
S'C2'
p5819
sa(dp5820
g2
g3
(g4
g5
Ntp5821
Rp5822
(dp5823
g9
(dp5824
S'0-00'
p5825
(dp5826
g13
I0
sg14
g15
(g19
S'\x05\x00\x00\x00\x00\x00\x00\x00'
p5827
tp5828
Rp5829
sg25
I2
sg26
I0
sg27
NssS'6-01'
p5830
(dp5831
g13
I6
sg14
g15
(g19
S'\x03\x00\x00\x00\x00\x00\x00\x00'
p5832
tp5833
Rp5834
sg25
I2
sg26
I2
sg27
g28
ssS'6-02'
p5835
(dp5836
g13
I6
sg14
g15
(g19
S'\x03\x00\x00\x00\x00\x00\x00\x00'
p5837
tp5838
Rp5839
sg25
I2
sg26
I2
sg27
g28
ssS'5-02'
p5840
(dp5841
g13
I5
sg14
g15
(g19
S'\x03\x00\x00\x00\x00\x00\x00\x00'
p5842
tp5843
Rp5844
sg25
I1
sg26
I2
sg27
g28
ssS'5-00'
p5845
(dp5846
g13
I5
sg14
g15
(g19
S'\x05\x00\x00\x00\x00\x00\x00\x00'
p5847
tp5848
Rp5849
sg25
I1
sg26
I2
sg27
g59
ssS'5-01'
p5850
(dp5851
g13
I5
sg14
g15
(g19
S'\x03\x00\x00\x00\x00\x00\x00\x00'
p5852
tp5853
Rp5854
sg25
I1
sg26
I2
sg27
g28
ssS'8-00'
p5855
(dp5856
g13
I8
sg14
g15
(g19
S'\x05\x00\x00\x00\x00\x00\x00\x00'
p5857
tp5858
Rp5859
sg25
I1
sg26
I3
sg27
NssS'1-00'
p5860
(dp5861
g13
I1
sg14
g15
(g19
S'\x05\x00\x00\x00\x00\x00\x00\x00'
p5862
tp5863
Rp5864
sg25
I0
sg26
I1
sg27
NssS'7-00'
p5865
(dp5866
g13
I7
sg14
g15
(g19
S'\x05\x00\x00\x00\x00\x00\x00\x00'
p5867
tp5868
Rp5869
sg25
I0
sg26
I3
sg27
NssS'3-00'
p5870
(dp5871
g13
I3
sg14
g15
(g19
S'\x05\x00\x00\x00\x00\x00\x00\x00'
p5872
tp5873
Rp5874
sg25
I2
sg26
I1
sg27
g28
ssS'3-01'
p5875
(dp5876
g13
I3
sg14
g15
(g19
S'\x02\x00\x00\x00\x00\x00\x00\x00'
p5877
tp5878
Rp5879
sg25
I2
sg26
I1
sg27
g28
ssS'3-02'
p5880
(dp5881
g13
I3
sg14
g15
(g19
S'\x03\x00\x00\x00\x00\x00\x00\x00'
p5882
tp5883
Rp5884
sg25
I2
sg26
I1
sg27
g161
ssS'3-03'
p5885
(dp5886
g13
I3
sg14
g15
(g19
S'\x03\x00\x00\x00\x00\x00\x00\x00'
p5887
tp5888
Rp5889
sg25
I2
sg26
I1
sg27
g161
ssS'2-03'
p5890
(dp5891
g13
I2
sg14
g15
(g19
S'\x03\x00\x00\x00\x00\x00\x00\x00'
p5892
tp5893
Rp5894
sg25
I1
sg26
I1
sg27
g161
ssS'2-02'
p5895
(dp5896
g13
I2
sg14
g15
(g19
S'\x03\x00\x00\x00\x00\x00\x00\x00'
p5897
tp5898
Rp5899
sg25
I1
sg26
I1
sg27
g161
ssS'2-01'
p5900
(dp5901
g13
I2
sg14
g15
(g19
S'\x02\x00\x00\x00\x00\x00\x00\x00'
p5902
tp5903
Rp5904
sg25
I1
sg26
I1
sg27
g28
ssS'2-00'
p5905
(dp5906
g13
I2
sg14
g15
(g19
S'\x05\x00\x00\x00\x00\x00\x00\x00'
p5907
tp5908
Rp5909
sg25
I1
sg26
I1
sg27
g28
ssS'4-00'
p5910
(dp5911
g13
I4
sg14
g15
(g19
S'\x05\x00\x00\x00\x00\x00\x00\x00'
p5912
tp5913
Rp5914
sg25
I0
sg26
I2
sg27
g28
ssS'6-00'
p5915
(dp5916
g13
I6
sg14
g15
(g19
S'\x05\x00\x00\x00\x00\x00\x00\x00'
p5917
tp5918
Rp5919
sg25
I2
sg26
I2
sg27
g59
sssg192
g193
sg194
g193
sg195
(dp5920
g5825
(dp5921
S'1-00'
p5922
(dp5923
ssg5830
(dp5924
S'7-00'
p5925
(dp5926
ssg5835
(dp5927
S'7-00'
p5928
(dp5929
ssg5840
(dp5930
S'6-02'
p5931
(dp5932
ssg5845
(dp5933
S'6-00'
p5934
(dp5935
ssg5850
(dp5936
S'6-01'
p5937
(dp5938
ssg5855
(dp5939
sg5860
(dp5940
S'2-03'
p5941
(dp5942
sS'2-02'
p5943
(dp5944
sS'2-01'
p5945
(dp5946
sS'2-00'
p5947
(dp5948
ssg5865
(dp5949
S'8-00'
p5950
(dp5951
ssg5870
(dp5952
S'4-00'
p5953
(dp5954
ssg5875
(dp5955
S'4-00'
p5956
(dp5957
ssg5880
(dp5958
S'4-00'
p5959
(dp5960
ssg5885
(dp5961
S'4-00'
p5962
(dp5963
ssg5890
(dp5964
S'3-03'
p5965
(dp5966
ssg5895
(dp5967
S'3-02'
p5968
(dp5969
ssg5900
(dp5970
S'3-01'
p5971
(dp5972
ssg5905
(dp5973
S'3-00'
p5974
(dp5975
ssg5910
(dp5976
S'5-02'
p5977
(dp5978
sS'5-00'
p5979
(dp5980
sS'5-01'
p5981
(dp5982
ssg5915
(dp5983
S'7-00'
p5984
(dp5985
sssg338
g5920
sg339
(dp5986
sg341
g193
sg342
g5920
sg343
(dp5987
g5825
(dp5988
sg5830
(dp5989
S'5-01'
p5990
g5938
ssg5835
(dp5991
S'5-02'
p5992
g5932
ssg5840
(dp5993
S'4-00'
p5994
g5978
ssg5845
(dp5995
S'4-00'
p5996
g5980
ssg5850
(dp5997
S'4-00'
p5998
g5982
ssg5855
(dp5999
S'7-00'
p6000
g5951
ssg5860
(dp6001
S'0-00'
p6002
g5923
ssg5865
(dp6003
S'6-02'
p6004
g5929
sS'6-01'
p6005
g5926
sS'6-00'
p6006
g5985
ssg5870
(dp6007
S'2-00'
p6008
g5975
ssg5875
(dp6009
S'2-01'
p6010
g5972
ssg5880
(dp6011
S'2-02'
p6012
g5969
ssg5885
(dp6013
S'2-03'
p6014
g5966
ssg5890
(dp6015
S'1-00'
p6016
g5942
ssg5895
(dp6017
S'1-00'
p6018
g5944
ssg5900
(dp6019
S'1-00'
p6020
g5946
ssg5905
(dp6021
S'1-00'
p6022
g5948
ssg5910
(dp6023
S'3-00'
p6024
g5954
sS'3-01'
p6025
g5957
sS'3-02'
p6026
g5960
sS'3-03'
p6027
g5963
ssg5915
(dp6028
S'5-00'
p6029
g5935
sssbsg432
S'namdocmai'
p6030
sg434
I01
sg435
S'C3'
p6031
sa(dp6032
g2
g3
(g4
g5
Ntp6033
Rp6034
(dp6035
g9
(dp6036
S'5-00'
p6037
(dp6038
g13
I5
sg14
g15
(g19
S'\x05\x00\x00\x00\x00\x00\x00\x00'
p6039
tp6040
Rp6041
sg25
I1
sg26
I2
sg27
g59
ssS'5-01'
p6042
(dp6043
g13
I5
sg14
g15
(g19
S'\x03\x00\x00\x00\x00\x00\x00\x00'
p6044
tp6045
Rp6046
sg25
I1
sg26
I2
sg27
g115
ssS'8-00'
p6047
(dp6048
g13
I8
sg14
g15
(g19
S'\x05\x00\x00\x00\x00\x00\x00\x00'
p6049
tp6050
Rp6051
sg25
I1
sg26
I3
sg27
NssS'7-00'
p6052
(dp6053
g13
I7
sg14
g15
(g19
S'\x05\x00\x00\x00\x00\x00\x00\x00'
p6054
tp6055
Rp6056
sg25
I0
sg26
I3
sg27
NssS'4-10'
p6057
(dp6058
g13
I4
sg14
g15
(g19
S'\x02\x00\x00\x00\x00\x00\x00\x00'
p6059
tp6060
Rp6061
sg25
I0
sg26
I2
sg27
g115
ssS'4-11'
p6062
(dp6063
g13
I4
sg14
g15
(g19
S'\x02\x00\x00\x00\x00\x00\x00\x00'
p6064
tp6065
Rp6066
sg25
I0
sg26
I2
sg27
g115
ssS'0-00'
p6067
(dp6068
g13
I0
sg14
g15
(g19
S'\x05\x00\x00\x00\x00\x00\x00\x00'
p6069
tp6070
Rp6071
sg25
I2
sg26
I0
sg27
NssS'2-03'
p6072
(dp6073
g13
I2
sg14
g15
(g19
S'\x03\x00\x00\x00\x00\x00\x00\x00'
p6074
tp6075
Rp6076
sg25
I1
sg26
I1
sg27
g161
ssS'2-02'
p6077
(dp6078
g13
I2
sg14
g15
(g19
S'\x03\x00\x00\x00\x00\x00\x00\x00'
p6079
tp6080
Rp6081
sg25
I1
sg26
I1
sg27
g161
ssS'2-01'
p6082
(dp6083
g13
I2
sg14
g15
(g19
S'\x03\x00\x00\x00\x00\x00\x00\x00'
p6084
tp6085
Rp6086
sg25
I1
sg26
I1
sg27
g161
ssS'2-00'
p6087
(dp6088
g13
I2
sg14
g15
(g19
S'\x05\x00\x00\x00\x00\x00\x00\x00'
p6089
tp6090
Rp6091
sg25
I1
sg26
I1
sg27
g28
ssS'4-09'
p6092
(dp6093
g13
I4
sg14
g15
(g19
S'\x03\x00\x00\x00\x00\x00\x00\x00'
p6094
tp6095
Rp6096
sg25
I0
sg26
I2
sg27
g59
ssS'4-08'
p6097
(dp6098
g13
I4
sg14
g15
(g19
S'\x02\x00\x00\x00\x00\x00\x00\x00'
p6099
tp6100
Rp6101
sg25
I0
sg26
I2
sg27
g115
ssS'4-05'
p6102
(dp6103
g13
I4
sg14
g15
(g19
S'\x02\x00\x00\x00\x00\x00\x00\x00'
p6104
tp6105
Rp6106
sg25
I0
sg26
I2
sg27
g115
ssS'4-04'
p6107
(dp6108
g13
I4
sg14
g15
(g19
S'\x03\x00\x00\x00\x00\x00\x00\x00'
p6109
tp6110
Rp6111
sg25
I0
sg26
I2
sg27
g115
ssS'4-07'
p6112
(dp6113
g13
I4
sg14
g15
(g19
S'\x03\x00\x00\x00\x00\x00\x00\x00'
p6114
tp6115
Rp6116
sg25
I0
sg26
I2
sg27
g115
ssS'4-06'
p6117
(dp6118
g13
I4
sg14
g15
(g19
S'\x03\x00\x00\x00\x00\x00\x00\x00'
p6119
tp6120
Rp6121
sg25
I0
sg26
I2
sg27
g115
ssS'4-01'
p6122
(dp6123
g13
I4
sg14
g15
(g19
S'\x03\x00\x00\x00\x00\x00\x00\x00'
p6124
tp6125
Rp6126
sg25
I0
sg26
I2
sg27
g115
ssS'4-00'
p6127
(dp6128
g13
I4
sg14
g15
(g19
S'\x05\x00\x00\x00\x00\x00\x00\x00'
p6129
tp6130
Rp6131
sg25
I0
sg26
I2
sg27
g28
ssS'4-03'
p6132
(dp6133
g13
I4
sg14
g15
(g19
S'\x02\x00\x00\x00\x00\x00\x00\x00'
p6134
tp6135
Rp6136
sg25
I0
sg26
I2
sg27
g115
ssS'4-02'
p6137
(dp6138
g13
I4
sg14
g15
(g19
S'\x03\x00\x00\x00\x00\x00\x00\x00'
p6139
tp6140
Rp6141
sg25
I0
sg26
I2
sg27
g115
ssS'6-03'
p6142
(dp6143
g13
I6
sg14
g15
(g19
S'\x04\x00\x00\x00\x00\x00\x00\x00'
p6144
tp6145
Rp6146
sg25
I2
sg26
I2
sg27
g161
ssS'6-02'
p6147
(dp6148
g13
I6
sg14
g15
(g19
S'\x03\x00\x00\x00\x00\x00\x00\x00'
p6149
tp6150
Rp6151
sg25
I2
sg26
I2
sg27
g115
ssS'6-01'
p6152
(dp6153
g13
I6
sg14
g15
(g19
S'\x03\x00\x00\x00\x00\x00\x00\x00'
p6154
tp6155
Rp6156
sg25
I2
sg26
I2
sg27
g161
ssS'6-00'
p6157
(dp6158
g13
I6
sg14
g15
(g19
S'\x05\x00\x00\x00\x00\x00\x00\x00'
p6159
tp6160
Rp6161
sg25
I2
sg26
I2
sg27
g59
ssS'1-00'
p6162
(dp6163
g13
I1
sg14
g15
(g19
S'\x05\x00\x00\x00\x00\x00\x00\x00'
p6164
tp6165
Rp6166
sg25
I0
sg26
I1
sg27
NssS'3-00'
p6167
(dp6168
g13
I3
sg14
g15
(g19
S'\x05\x00\x00\x00\x00\x00\x00\x00'
p6169
tp6170
Rp6171
sg25
I2
sg26
I1
sg27
g28
ssS'3-01'
p6172
(dp6173
g13
I3
sg14
g15
(g19
S'\x03\x00\x00\x00\x00\x00\x00\x00'
p6174
tp6175
Rp6176
sg25
I2
sg26
I1
sg27
g161
ssS'3-02'
p6177
(dp6178
g13
I3
sg14
g15
(g19
S'\x03\x00\x00\x00\x00\x00\x00\x00'
p6179
tp6180
Rp6181
sg25
I2
sg26
I1
sg27
g161
ssS'3-03'
p6182
(dp6183
g13
I3
sg14
g15
(g19
S'\x03\x00\x00\x00\x00\x00\x00\x00'
p6184
tp6185
Rp6186
sg25
I2
sg26
I1
sg27
g161
sssg192
g193
sg194
g193
sg195
(dp6187
g6037
(dp6188
S'6-03'
p6189
(dp6190
sS'6-01'
p6191
(dp6192
sS'6-00'
p6193
(dp6194
ssg6042
(dp6195
S'6-02'
p6196
(dp6197
ssg6047
(dp6198
sg6052
(dp6199
S'8-00'
p6200
(dp6201
ssg6057
(dp6202
S'5-00'
p6203
(dp6204
ssg6062
(dp6205
S'5-00'
p6206
(dp6207
ssg6067
(dp6208
S'1-00'
p6209
(dp6210
ssg6072
(dp6211
S'3-03'
p6212
(dp6213
ssg6077
(dp6214
S'3-02'
p6215
(dp6216
ssg6082
(dp6217
S'3-01'
p6218
(dp6219
ssg6087
(dp6220
S'3-00'
p6221
(dp6222
ssg6092
(dp6223
S'5-00'
p6224
(dp6225
ssg6097
(dp6226
S'5-00'
p6227
(dp6228
ssg6102
(dp6229
S'5-00'
p6230
(dp6231
ssg6107
(dp6232
S'5-00'
p6233
(dp6234
ssg6112
(dp6235
S'5-00'
p6236
(dp6237
ssg6117
(dp6238
S'5-01'
p6239
(dp6240
ssg6122
(dp6241
S'5-00'
p6242
(dp6243
ssg6127
(dp6244
S'5-00'
p6245
(dp6246
ssg6132
(dp6247
S'5-00'
p6248
(dp6249
ssg6137
(dp6250
S'5-00'
p6251
(dp6252
ssg6142
(dp6253
S'7-00'
p6254
(dp6255
ssg6147
(dp6256
S'7-00'
p6257
(dp6258
ssg6152
(dp6259
S'7-00'
p6260
(dp6261
ssg6157
(dp6262
S'7-00'
p6263
(dp6264
ssg6162
(dp6265
S'2-03'
p6266
(dp6267
sS'2-02'
p6268
(dp6269
sS'2-01'
p6270
(dp6271
sS'2-00'
p6272
(dp6273
ssg6167
(dp6274
S'4-10'
p6275
(dp6276
sS'4-11'
p6277
(dp6278
sS'4-09'
p6279
(dp6280
sS'4-08'
p6281
(dp6282
sS'4-05'
p6283
(dp6284
sS'4-04'
p6285
(dp6286
sS'4-07'
p6287
(dp6288
sS'4-06'
p6289
(dp6290
sS'4-01'
p6291
(dp6292
sS'4-00'
p6293
(dp6294
sS'4-03'
p6295
(dp6296
sS'4-02'
p6297
(dp6298
ssg6172
(dp6299
S'4-00'
p6300
(dp6301
ssg6177
(dp6302
S'4-00'
p6303
(dp6304
ssg6182
(dp6305
S'4-00'
p6306
(dp6307
sssg338
g6187
sg339
(dp6308
sg341
g193
sg342
g6187
sg343
(dp6309
g6037
(dp6310
S'4-10'
p6311
g6204
sS'4-11'
p6312
g6207
sS'4-09'
p6313
g6225
sS'4-08'
p6314
g6228
sS'4-05'
p6315
g6231
sS'4-04'
p6316
g6234
sS'4-07'
p6317
g6237
sS'4-01'
p6318
g6243
sS'4-00'
p6319
g6246
sS'4-03'
p6320
g6249
sS'4-02'
p6321
g6252
ssg6042
(dp6322
S'4-06'
p6323
g6240
ssg6047
(dp6324
S'7-00'
p6325
g6201
ssg6052
(dp6326
S'6-03'
p6327
g6255
sS'6-02'
p6328
g6258
sS'6-01'
p6329
g6261
sS'6-00'
p6330
g6264
ssg6057
(dp6331
S'3-00'
p6332
g6276
ssg6062
(dp6333
S'3-00'
p6334
g6278
ssg6067
(dp6335
sg6072
(dp6336
S'1-00'
p6337
g6267
ssg6077
(dp6338
S'1-00'
p6339
g6269
ssg6082
(dp6340
S'1-00'
p6341
g6271
ssg6087
(dp6342
S'1-00'
p6343
g6273
ssg6092
(dp6344
S'3-00'
p6345
g6280
ssg6097
(dp6346
S'3-00'
p6347
g6282
ssg6102
(dp6348
S'3-00'
p6349
g6284
ssg6107
(dp6350
S'3-00'
p6351
g6286
ssg6112
(dp6352
S'3-00'
p6353
g6288
ssg6117
(dp6354
S'3-00'
p6355
g6290
ssg6122
(dp6356
S'3-00'
p6357
g6292
ssg6127
(dp6358
S'3-00'
p6359
g6294
sS'3-01'
p6360
g6301
sS'3-02'
p6361
g6304
sS'3-03'
p6362
g6307
ssg6132
(dp6363
S'3-00'
p6364
g6296
ssg6137
(dp6365
S'3-00'
p6366
g6298
ssg6142
(dp6367
S'5-00'
p6368
g6190
ssg6147
(dp6369
S'5-01'
p6370
g6197
ssg6152
(dp6371
S'5-00'
p6372
g6192
ssg6157
(dp6373
S'5-00'
p6374
g6194
ssg6162
(dp6375
S'0-00'
p6376
g6210
ssg6167
(dp6377
S'2-00'
p6378
g6222
ssg6172
(dp6379
S'2-01'
p6380
g6219
ssg6177
(dp6381
S'2-02'
p6382
g6216
ssg6182
(dp6383
S'2-03'
p6384
g6213
sssbsg432
S'namdocmai'
p6385
sg434
I00
sg435
S'C7'
p6386
sa(dp6387
g2
g3
(g4
g5
Ntp6388
Rp6389
(dp6390
g9
(dp6391
S'0-00'
p6392
(dp6393
g13
I0
sg14
g15
(g19
S'\x05\x00\x00\x00\x00\x00\x00\x00'
p6394
tp6395
Rp6396
sg25
I2
sg26
I0
sg27
NssS'6-01'
p6397
(dp6398
g13
I6
sg14
g15
(g19
S'\x02\x00\x00\x00\x00\x00\x00\x00'
p6399
tp6400
Rp6401
sg25
I2
sg26
I2
sg27
g28
ssS'6-00'
p6402
(dp6403
g13
I6
sg14
g15
(g19
S'\x05\x00\x00\x00\x00\x00\x00\x00'
p6404
tp6405
Rp6406
sg25
I2
sg26
I2
sg27
g59
ssS'5-02'
p6407
(dp6408
g13
I5
sg14
g15
(g19
S'\x02\x00\x00\x00\x00\x00\x00\x00'
p6409
tp6410
Rp6411
sg25
I1
sg26
I2
sg27
g28
ssS'5-00'
p6412
(dp6413
g13
I5
sg14
g15
(g19
S'\x05\x00\x00\x00\x00\x00\x00\x00'
p6414
tp6415
Rp6416
sg25
I1
sg26
I2
sg27
g59
ssS'5-01'
p6417
(dp6418
g13
I5
sg14
g15
(g19
S'\x02\x00\x00\x00\x00\x00\x00\x00'
p6419
tp6420
Rp6421
sg25
I1
sg26
I2
sg27
g28
ssS'8-00'
p6422
(dp6423
g13
I8
sg14
g15
(g19
S'\x05\x00\x00\x00\x00\x00\x00\x00'
p6424
tp6425
Rp6426
sg25
I1
sg26
I3
sg27
NssS'1-00'
p6427
(dp6428
g13
I1
sg14
g15
(g19
S'\x05\x00\x00\x00\x00\x00\x00\x00'
p6429
tp6430
Rp6431
sg25
I0
sg26
I1
sg27
NssS'7-00'
p6432
(dp6433
g13
I7
sg14
g15
(g19
S'\x05\x00\x00\x00\x00\x00\x00\x00'
p6434
tp6435
Rp6436
sg25
I0
sg26
I3
sg27
NssS'3-00'
p6437
(dp6438
g13
I3
sg14
g15
(g19
S'\x05\x00\x00\x00\x00\x00\x00\x00'
p6439
tp6440
Rp6441
sg25
I2
sg26
I1
sg27
g28
ssS'2-00'
p6442
(dp6443
g13
I2
sg14
g15
(g19
S'\x05\x00\x00\x00\x00\x00\x00\x00'
p6444
tp6445
Rp6446
sg25
I1
sg26
I1
sg27
g28
ssS'4-01'
p6447
(dp6448
g13
I4
sg14
g15
(g19
S'\x04\x00\x00\x00\x00\x00\x00\x00'
p6449
tp6450
Rp6451
sg25
I0
sg26
I2
sg27
g115
ssS'4-00'
p6452
(dp6453
g13
I4
sg14
g15
(g19
S'\x05\x00\x00\x00\x00\x00\x00\x00'
p6454
tp6455
Rp6456
sg25
I0
sg26
I2
sg27
g28
ssS'4-02'
p6457
(dp6458
g13
I4
sg14
g15
(g19
S'\x03\x00\x00\x00\x00\x00\x00\x00'
p6459
tp6460
Rp6461
sg25
I0
sg26
I2
sg27
g115
sssg192
g193
sg194
g193
sg195
(dp6462
g6392
(dp6463
S'1-00'
p6464
(dp6465
ssg6397
(dp6466
S'7-00'
p6467
(dp6468
ssg6402
(dp6469
S'7-00'
p6470
(dp6471
ssg6407
(dp6472
S'6-01'
p6473
(dp6474
ssg6412
(dp6475
S'6-00'
p6476
(dp6477
ssg6417
(dp6478
S'6-00'
p6479
(dp6480
ssg6422
(dp6481
sg6427
(dp6482
S'2-00'
p6483
(dp6484
ssg6432
(dp6485
S'8-00'
p6486
(dp6487
ssg6437
(dp6488
S'4-01'
p6489
(dp6490
sS'4-00'
p6491
(dp6492
sS'4-02'
p6493
(dp6494
ssg6442
(dp6495
S'3-00'
p6496
(dp6497
ssg6447
(dp6498
S'5-00'
p6499
(dp6500
ssg6452
(dp6501
S'5-02'
p6502
(dp6503
sS'5-00'
p6504
(dp6505
sS'5-01'
p6506
(dp6507
ssg6457
(dp6508
S'5-00'
p6509
(dp6510
sssg338
g6462
sg339
(dp6511
sg341
g193
sg342
g6462
sg343
(dp6512
g6392
(dp6513
sg6397
(dp6514
S'5-02'
p6515
g6474
ssg6402
(dp6516
S'5-00'
p6517
g6477
sS'5-01'
p6518
g6480
ssg6407
(dp6519
S'4-00'
p6520
g6503
ssg6412
(dp6521
S'4-01'
p6522
g6500
sS'4-00'
p6523
g6505
sS'4-02'
p6524
g6510
ssg6417
(dp6525
S'4-00'
p6526
g6507
ssg6422
(dp6527
S'7-00'
p6528
g6487
ssg6427
(dp6529
S'0-00'
p6530
g6465
ssg6432
(dp6531
S'6-01'
p6532
g6468
sS'6-00'
p6533
g6471
ssg6437
(dp6534
S'2-00'
p6535
g6497
ssg6442
(dp6536
S'1-00'
p6537
g6484
ssg6447
(dp6538
S'3-00'
p6539
g6490
ssg6452
(dp6540
S'3-00'
p6541
g6492
ssg6457
(dp6542
S'3-00'
p6543
g6494
sssbsg432
S'namdocmai'
p6544
sg434
I00
sg435
S'G12'
p6545
sa(dp6546
g2
g3
(g4
g5
Ntp6547
Rp6548
(dp6549
g9
(dp6550
S'0-00'
p6551
(dp6552
g13
I0
sg14
g15
(g19
S'\x05\x00\x00\x00\x00\x00\x00\x00'
p6553
tp6554
Rp6555
sg25
I2
sg26
I0
sg27
NssS'6-01'
p6556
(dp6557
g13
I6
sg14
g15
(g19
S'\x04\x00\x00\x00\x00\x00\x00\x00'
p6558
tp6559
Rp6560
sg25
I2
sg26
I2
sg27
g59
ssS'6-00'
p6561
(dp6562
g13
I6
sg14
g15
(g19
S'\x05\x00\x00\x00\x00\x00\x00\x00'
p6563
tp6564
Rp6565
sg25
I2
sg26
I2
sg27
g28
ssS'5-00'
p6566
(dp6567
g13
I5
sg14
g15
(g19
S'\x05\x00\x00\x00\x00\x00\x00\x00'
p6568
tp6569
Rp6570
sg25
I1
sg26
I2
sg27
g28
ssS'5-01'
p6571
(dp6572
g13
I5
sg14
g15
(g19
S'\x04\x00\x00\x00\x00\x00\x00\x00'
p6573
tp6574
Rp6575
sg25
I1
sg26
I2
sg27
g59
ssS'8-00'
p6576
(dp6577
g13
I8
sg14
g15
(g19
S'\x05\x00\x00\x00\x00\x00\x00\x00'
p6578
tp6579
Rp6580
sg25
I1
sg26
I3
sg27
NssS'1-00'
p6581
(dp6582
g13
I1
sg14
g15
(g19
S'\x05\x00\x00\x00\x00\x00\x00\x00'
p6583
tp6584
Rp6585
sg25
I0
sg26
I1
sg27
NssS'7-00'
p6586
(dp6587
g13
I7
sg14
g15
(g19
S'\x05\x00\x00\x00\x00\x00\x00\x00'
p6588
tp6589
Rp6590
sg25
I0
sg26
I3
sg27
NssS'3-00'
p6591
(dp6592
g13
I3
sg14
g15
(g19
S'\x05\x00\x00\x00\x00\x00\x00\x00'
p6593
tp6594
Rp6595
sg25
I2
sg26
I1
sg27
g28
ssS'2-00'
p6596
(dp6597
g13
I2
sg14
g15
(g19
S'\x05\x00\x00\x00\x00\x00\x00\x00'
p6598
tp6599
Rp6600
sg25
I1
sg26
I1
sg27
g28
ssS'4-01'
p6601
(dp6602
g13
I4
sg14
g15
(g19
S'\x04\x00\x00\x00\x00\x00\x00\x00'
p6603
tp6604
Rp6605
sg25
I0
sg26
I2
sg27
g28
ssS'4-00'
p6606
(dp6607
g13
I4
sg14
g15
(g19
S'\x05\x00\x00\x00\x00\x00\x00\x00'
p6608
tp6609
Rp6610
sg25
I0
sg26
I2
sg27
g28
ssS'4-02'
p6611
(dp6612
g13
I4
sg14
g15
(g19
S'\x02\x00\x00\x00\x00\x00\x00\x00'
p6613
tp6614
Rp6615
sg25
I0
sg26
I2
sg27
g115
sssg192
g193
sg194
g193
sg195
(dp6616
g6551
(dp6617
S'1-00'
p6618
(dp6619
ssg6556
(dp6620
S'7-00'
p6621
(dp6622
ssg6561
(dp6623
S'7-00'
p6624
(dp6625
ssg6566
(dp6626
S'6-00'
p6627
(dp6628
ssg6571
(dp6629
S'6-01'
p6630
(dp6631
ssg6576
(dp6632
sg6581
(dp6633
S'2-00'
p6634
(dp6635
ssg6586
(dp6636
S'8-00'
p6637
(dp6638
ssg6591
(dp6639
S'4-01'
p6640
(dp6641
sS'4-00'
p6642
(dp6643
sS'4-02'
p6644
(dp6645
ssg6596
(dp6646
S'3-00'
p6647
(dp6648
ssg6601
(dp6649
S'5-00'
p6650
(dp6651
ssg6606
(dp6652
S'5-00'
p6653
(dp6654
sS'5-01'
p6655
(dp6656
ssg6611
(dp6657
S'5-01'
p6658
(dp6659
sssg338
g6616
sg339
(dp6660
sg341
g193
sg342
g6616
sg343
(dp6661
g6551
(dp6662
sg6556
(dp6663
S'5-01'
p6664
g6631
ssg6561
(dp6665
S'5-00'
p6666
g6628
ssg6566
(dp6667
S'4-01'
p6668
g6651
sS'4-00'
p6669
g6654
ssg6571
(dp6670
S'4-00'
p6671
g6656
sS'4-02'
p6672
g6659
ssg6576
(dp6673
S'7-00'
p6674
g6638
ssg6581
(dp6675
S'0-00'
p6676
g6619
ssg6586
(dp6677
S'6-01'
p6678
g6622
sS'6-00'
p6679
g6625
ssg6591
(dp6680
S'2-00'
p6681
g6648
ssg6596
(dp6682
S'1-00'
p6683
g6635
ssg6601
(dp6684
S'3-00'
p6685
g6641
ssg6606
(dp6686
S'3-00'
p6687
g6643
ssg6611
(dp6688
S'3-00'
p6689
g6645
sssbsg432
S'namdocmai'
p6690
sg434
I01
sg435
S'G8'
p6691
sa(dp6692
g2
g3
(g4
g5
Ntp6693
Rp6694
(dp6695
g9
(dp6696
S'0-00'
p6697
(dp6698
g13
I0
sg14
g15
(g19
S'\x05\x00\x00\x00\x00\x00\x00\x00'
p6699
tp6700
Rp6701
sg25
I2
sg26
I0
sg27
NssS'6-01'
p6702
(dp6703
g13
I6
sg14
g15
(g19
S'\x02\x00\x00\x00\x00\x00\x00\x00'
p6704
tp6705
Rp6706
sg25
I2
sg26
I2
sg27
g59
ssS'6-00'
p6707
(dp6708
g13
I6
sg14
g15
(g19
S'\x05\x00\x00\x00\x00\x00\x00\x00'
p6709
tp6710
Rp6711
sg25
I2
sg26
I2
sg27
g161
ssS'5-02'
p6712
(dp6713
g13
I5
sg14
g15
(g19
S'\x02\x00\x00\x00\x00\x00\x00\x00'
p6714
tp6715
Rp6716
sg25
I1
sg26
I2
sg27
g28
ssS'5-03'
p6717
(dp6718
g13
I5
sg14
g15
(g19
S'\x03\x00\x00\x00\x00\x00\x00\x00'
p6719
tp6720
Rp6721
sg25
I1
sg26
I2
sg27
g28
ssS'5-00'
p6722
(dp6723
g13
I5
sg14
g15
(g19
S'\x05\x00\x00\x00\x00\x00\x00\x00'
p6724
tp6725
Rp6726
sg25
I1
sg26
I2
sg27
g59
ssS'5-01'
p6727
(dp6728
g13
I5
sg14
g15
(g19
S'\x02\x00\x00\x00\x00\x00\x00\x00'
p6729
tp6730
Rp6731
sg25
I1
sg26
I2
sg27
g28
ssS'8-00'
p6732
(dp6733
g13
I8
sg14
g15
(g19
S'\x05\x00\x00\x00\x00\x00\x00\x00'
p6734
tp6735
Rp6736
sg25
I1
sg26
I3
sg27
NssS'1-00'
p6737
(dp6738
g13
I1
sg14
g15
(g19
S'\x05\x00\x00\x00\x00\x00\x00\x00'
p6739
tp6740
Rp6741
sg25
I0
sg26
I1
sg27
NssS'7-00'
p6742
(dp6743
g13
I7
sg14
g15
(g19
S'\x05\x00\x00\x00\x00\x00\x00\x00'
p6744
tp6745
Rp6746
sg25
I0
sg26
I3
sg27
NssS'3-00'
p6747
(dp6748
g13
I3
sg14
g15
(g19
S'\x05\x00\x00\x00\x00\x00\x00\x00'
p6749
tp6750
Rp6751
sg25
I2
sg26
I1
sg27
g28
ssS'3-01'
p6752
(dp6753
g13
I3
sg14
g15
(g19
S'\x04\x00\x00\x00\x00\x00\x00\x00'
p6754
tp6755
Rp6756
sg25
I2
sg26
I1
sg27
g28
ssS'2-01'
p6757
(dp6758
g13
I2
sg14
g15
(g19
S'\x04\x00\x00\x00\x00\x00\x00\x00'
p6759
tp6760
Rp6761
sg25
I1
sg26
I1
sg27
g28
ssS'2-00'
p6762
(dp6763
g13
I2
sg14
g15
(g19
S'\x05\x00\x00\x00\x00\x00\x00\x00'
p6764
tp6765
Rp6766
sg25
I1
sg26
I1
sg27
g28
ssS'4-04'
p6767
(dp6768
g13
I4
sg14
g15
(g19
S'\x03\x00\x00\x00\x00\x00\x00\x00'
p6769
tp6770
Rp6771
sg25
I0
sg26
I2
sg27
g115
ssS'4-01'
p6772
(dp6773
g13
I4
sg14
g15
(g19
S'\x02\x00\x00\x00\x00\x00\x00\x00'
p6774
tp6775
Rp6776
sg25
I0
sg26
I2
sg27
g115
ssS'4-00'
p6777
(dp6778
g13
I4
sg14
g15
(g19
S'\x05\x00\x00\x00\x00\x00\x00\x00'
p6779
tp6780
Rp6781
sg25
I0
sg26
I2
sg27
g28
ssS'4-03'
p6782
(dp6783
g13
I4
sg14
g15
(g19
S'\x03\x00\x00\x00\x00\x00\x00\x00'
p6784
tp6785
Rp6786
sg25
I0
sg26
I2
sg27
g115
ssS'4-02'
p6787
(dp6788
g13
I4
sg14
g15
(g19
S'\x03\x00\x00\x00\x00\x00\x00\x00'
p6789
tp6790
Rp6791
sg25
I0
sg26
I2
sg27
g115
sssg192
g193
sg194
g193
sg195
(dp6792
g6697
(dp6793
S'1-00'
p6794
(dp6795
ssg6702
(dp6796
S'7-00'
p6797
(dp6798
ssg6707
(dp6799
S'7-00'
p6800
(dp6801
ssg6712
(dp6802
S'6-00'
p6803
(dp6804
ssg6717
(dp6805
S'6-00'
p6806
(dp6807
ssg6722
(dp6808
S'6-01'
p6809
(dp6810
sS'6-00'
p6811
(dp6812
ssg6727
(dp6813
S'6-00'
p6814
(dp6815
ssg6732
(dp6816
sg6737
(dp6817
S'2-01'
p6818
(dp6819
sS'2-00'
p6820
(dp6821
ssg6742
(dp6822
S'8-00'
p6823
(dp6824
ssg6747
(dp6825
S'4-04'
p6826
(dp6827
sS'4-01'
p6828
(dp6829
sS'4-00'
p6830
(dp6831
sS'4-03'
p6832
(dp6833
sS'4-02'
p6834
(dp6835
ssg6752
(dp6836
S'4-00'
p6837
(dp6838
ssg6757
(dp6839
S'3-01'
p6840
(dp6841
ssg6762
(dp6842
S'3-00'
p6843
(dp6844
ssg6767
(dp6845
S'5-00'
p6846
(dp6847
ssg6772
(dp6848
S'5-00'
p6849
(dp6850
ssg6777
(dp6851
S'5-02'
p6852
(dp6853
sS'5-03'
p6854
(dp6855
sS'5-00'
p6856
(dp6857
sS'5-01'
p6858
(dp6859
ssg6782
(dp6860
S'5-00'
p6861
(dp6862
ssg6787
(dp6863
S'5-00'
p6864
(dp6865
sssg338
g6792
sg339
(dp6866
sg341
g193
sg342
g6792
sg343
(dp6867
g6697
(dp6868
sg6702
(dp6869
S'5-00'
p6870
g6810
ssg6707
(dp6871
S'5-02'
p6872
g6804
sS'5-03'
p6873
g6807
sS'5-00'
p6874
g6812
sS'5-01'
p6875
g6815
ssg6712
(dp6876
S'4-00'
p6877
g6853
ssg6717
(dp6878
S'4-00'
p6879
g6855
ssg6722
(dp6880
S'4-04'
p6881
g6847
sS'4-01'
p6882
g6850
sS'4-00'
p6883
g6857
sS'4-03'
p6884
g6862
sS'4-02'
p6885
g6865
ssg6727
(dp6886
S'4-00'
p6887
g6859
ssg6732
(dp6888
S'7-00'
p6889
g6824
ssg6737
(dp6890
S'0-00'
p6891
g6795
ssg6742
(dp6892
S'6-01'
p6893
g6798
sS'6-00'
p6894
g6801
ssg6747
(dp6895
S'2-00'
p6896
g6844
ssg6752
(dp6897
S'2-01'
p6898
g6841
ssg6757
(dp6899
S'1-00'
p6900
g6819
ssg6762
(dp6901
S'1-00'
p6902
g6821
ssg6767
(dp6903
S'3-00'
p6904
g6827
ssg6772
(dp6905
S'3-00'
p6906
g6829
ssg6777
(dp6907
S'3-00'
p6908
g6831
sS'3-01'
p6909
g6838
ssg6782
(dp6910
S'3-00'
p6911
g6833
ssg6787
(dp6912
S'3-00'
p6913
g6835
sssbsg432
S'tommyatkins'
p6914
sg434
I00
sg435
S'D13'
p6915
sa(dp6916
g2
g3
(g4
g5
Ntp6917
Rp6918
(dp6919
g9
(dp6920
S'6-03'
p6921
(dp6922
g13
I6
sg14
g15
(g19
S'\x04\x00\x00\x00\x00\x00\x00\x00'
p6923
tp6924
Rp6925
sg25
I2
sg26
I2
sg27
g59
ssS'0-00'
p6926
(dp6927
g13
I0
sg14
g15
(g19
S'\x05\x00\x00\x00\x00\x00\x00\x00'
p6928
tp6929
Rp6930
sg25
I2
sg26
I0
sg27
NssS'5-04'
p6931
(dp6932
g13
I5
sg14
g15
(g19
S'\x04\x00\x00\x00\x00\x00\x00\x00'
p6933
tp6934
Rp6935
sg25
I1
sg26
I2
sg27
g59
ssS'6-00'
p6936
(dp6937
g13
I6
sg14
g15
(g19
S'\x05\x00\x00\x00\x00\x00\x00\x00'
p6938
tp6939
Rp6940
sg25
I2
sg26
I2
sg27
g115
ssS'5-02'
p6941
(dp6942
g13
I5
sg14
g15
(g19
S'\x02\x00\x00\x00\x00\x00\x00\x00'
p6943
tp6944
Rp6945
sg25
I1
sg26
I2
sg27
g115
ssS'5-03'
p6946
(dp6947
g13
I5
sg14
g15
(g19
S'\x03\x00\x00\x00\x00\x00\x00\x00'
p6948
tp6949
Rp6950
sg25
I1
sg26
I2
sg27
g28
ssS'5-00'
p6951
(dp6952
g13
I5
sg14
g15
(g19
S'\x05\x00\x00\x00\x00\x00\x00\x00'
p6953
tp6954
Rp6955
sg25
I1
sg26
I2
sg27
g28
ssS'6-02'
p6956
(dp6957
g13
I6
sg14
g15
(g19
S'\x03\x00\x00\x00\x00\x00\x00\x00'
p6958
tp6959
Rp6960
sg25
I2
sg26
I2
sg27
g59
ssS'8-00'
p6961
(dp6962
g13
I8
sg14
g15
(g19
S'\x05\x00\x00\x00\x00\x00\x00\x00'
p6963
tp6964
Rp6965
sg25
I1
sg26
I3
sg27
NssS'1-00'
p6966
(dp6967
g13
I1
sg14
g15
(g19
S'\x05\x00\x00\x00\x00\x00\x00\x00'
p6968
tp6969
Rp6970
sg25
I0
sg26
I1
sg27
NssS'5-01'
p6971
(dp6972
g13
I5
sg14
g15
(g19
S'\x02\x00\x00\x00\x00\x00\x00\x00'
p6973
tp6974
Rp6975
sg25
I1
sg26
I2
sg27
g115
ssS'7-00'
p6976
(dp6977
g13
I7
sg14
g15
(g19
S'\x05\x00\x00\x00\x00\x00\x00\x00'
p6978
tp6979
Rp6980
sg25
I0
sg26
I3
sg27
NssS'6-01'
p6981
(dp6982
g13
I6
sg14
g15
(g19
S'\x02\x00\x00\x00\x00\x00\x00\x00'
p6983
tp6984
Rp6985
sg25
I2
sg26
I2
sg27
g28
ssS'3-00'
p6986
(dp6987
g13
I3
sg14
g15
(g19
S'\x05\x00\x00\x00\x00\x00\x00\x00'
p6988
tp6989
Rp6990
sg25
I2
sg26
I1
sg27
NssS'2-00'
p6991
(dp6992
g13
I2
sg14
g15
(g19
S'\x05\x00\x00\x00\x00\x00\x00\x00'
p6993
tp6994
Rp6995
sg25
I1
sg26
I1
sg27
NssS'4-01'
p6996
(dp6997
g13
I4
sg14
g15
(g19
S'\x03\x00\x00\x00\x00\x00\x00\x00'
p6998
tp6999
Rp7000
sg25
I0
sg26
I2
sg27
g28
ssS'4-00'
p7001
(dp7002
g13
I4
sg14
g15
(g19
S'\x05\x00\x00\x00\x00\x00\x00\x00'
p7003
tp7004
Rp7005
sg25
I0
sg26
I2
sg27
g28
ssS'4-03'
p7006
(dp7007
g13
I4
sg14
g15
(g19
S'\x02\x00\x00\x00\x00\x00\x00\x00'
p7008
tp7009
Rp7010
sg25
I0
sg26
I2
sg27
g115
ssS'4-02'
p7011
(dp7012
g13
I4
sg14
g15
(g19
S'\x03\x00\x00\x00\x00\x00\x00\x00'
p7013
tp7014
Rp7015
sg25
I0
sg26
I2
sg27
g28
sssg192
g193
sg194
g193
sg195
(dp7016
g6921
(dp7017
S'7-00'
p7018
(dp7019
ssg6926
(dp7020
S'1-00'
p7021
(dp7022
ssg6931
(dp7023
S'6-03'
p7024
(dp7025
ssg6936
(dp7026
S'7-00'
p7027
(dp7028
ssg6941
(dp7029
S'6-00'
p7030
(dp7031
ssg6946
(dp7032
S'6-00'
p7033
(dp7034
ssg6951
(dp7035
S'6-02'
p7036
(dp7037
sS'6-01'
p7038
(dp7039
sS'6-00'
p7040
(dp7041
ssg6956
(dp7042
S'7-00'
p7043
(dp7044
ssg6961
(dp7045
sg6966
(dp7046
S'2-00'
p7047
(dp7048
ssg6971
(dp7049
S'6-00'
p7050
(dp7051
ssg6976
(dp7052
S'8-00'
p7053
(dp7054
ssg6981
(dp7055
S'7-00'
p7056
(dp7057
ssg6986
(dp7058
S'4-01'
p7059
(dp7060
sS'4-00'
p7061
(dp7062
sS'4-03'
p7063
(dp7064
sS'4-02'
p7065
(dp7066
ssg6991
(dp7067
S'3-00'
p7068
(dp7069
ssg6996
(dp7070
S'5-00'
p7071
(dp7072
ssg7001
(dp7073
S'5-04'
p7074
(dp7075
sS'5-02'
p7076
(dp7077
sS'5-00'
p7078
(dp7079
sS'5-01'
p7080
(dp7081
ssg7006
(dp7082
S'5-00'
p7083
(dp7084
ssg7011
(dp7085
S'5-03'
p7086
(dp7087
sssg338
g7016
sg339
(dp7088
sg341
g193
sg342
g7016
sg343
(dp7089
g6921
(dp7090
S'5-04'
p7091
g7025
ssg6926
(dp7092
sg6931
(dp7093
S'4-00'
p7094
g7075
ssg6936
(dp7095
S'5-02'
p7096
g7031
sS'5-03'
p7097
g7034
sS'5-00'
p7098
g7041
sS'5-01'
p7099
g7051
ssg6941
(dp7100
S'4-00'
p7101
g7077
ssg6946
(dp7102
S'4-02'
p7103
g7087
ssg6951
(dp7104
S'4-01'
p7105
g7072
sS'4-00'
p7106
g7079
sS'4-03'
p7107
g7084
ssg6956
(dp7108
S'5-00'
p7109
g7037
ssg6961
(dp7110
S'7-00'
p7111
g7054
ssg6966
(dp7112
S'0-00'
p7113
g7022
ssg6971
(dp7114
S'4-00'
p7115
g7081
ssg6976
(dp7116
S'6-03'
p7117
g7019
sS'6-02'
p7118
g7044
sS'6-01'
p7119
g7057
sS'6-00'
p7120
g7028
ssg6981
(dp7121
S'5-00'
p7122
g7039
ssg6986
(dp7123
S'2-00'
p7124
g7069
ssg6991
(dp7125
S'1-00'
p7126
g7048
ssg6996
(dp7127
S'3-00'
p7128
g7060
ssg7001
(dp7129
S'3-00'
p7130
g7062
ssg7006
(dp7131
S'3-00'
p7132
g7064
ssg7011
(dp7133
S'3-00'
p7134
g7066
sssbsg432
S'tommyatkins'
p7135
sg434
I01
sg435
S'D14'
p7136
sa(dp7137
g2
g3
(g4
g5
Ntp7138
Rp7139
(dp7140
g9
(dp7141
S'6-03'
p7142
(dp7143
g13
I6
sg14
g15
(g19
S'\x04\x00\x00\x00\x00\x00\x00\x00'
p7144
tp7145
Rp7146
sg25
I2
sg26
I2
sg27
g161
ssS'0-00'
p7147
(dp7148
g13
I0
sg14
g15
(g19
S'\x05\x00\x00\x00\x00\x00\x00\x00'
p7149
tp7150
Rp7151
sg25
I2
sg26
I0
sg27
NssS'6-01'
p7152
(dp7153
g13
I6
sg14
g15
(g19
S'\x02\x00\x00\x00\x00\x00\x00\x00'
p7154
tp7155
Rp7156
sg25
I2
sg26
I2
sg27
g28
ssS'6-00'
p7157
(dp7158
g13
I6
sg14
g15
(g19
S'\x05\x00\x00\x00\x00\x00\x00\x00'
p7159
tp7160
Rp7161
sg25
I2
sg26
I2
sg27
g28
ssS'6-07'
p7162
(dp7163
g13
I6
sg14
g15
(g19
S'\x03\x00\x00\x00\x00\x00\x00\x00'
p7164
tp7165
Rp7166
sg25
I2
sg26
I2
sg27
g28
ssS'6-06'
p7167
(dp7168
g13
I6
sg14
g15
(g19
S'\x02\x00\x00\x00\x00\x00\x00\x00'
p7169
tp7170
Rp7171
sg25
I2
sg26
I2
sg27
g115
ssS'5-00'
p7172
(dp7173
g13
I5
sg14
g15
(g19
S'\x05\x00\x00\x00\x00\x00\x00\x00'
p7174
tp7175
Rp7176
sg25
I1
sg26
I2
sg27
g28
ssS'6-02'
p7177
(dp7178
g13
I6
sg14
g15
(g19
S'\x04\x00\x00\x00\x00\x00\x00\x00'
p7179
tp7180
Rp7181
sg25
I2
sg26
I2
sg27
g28
ssS'8-00'
p7182
(dp7183
g13
I8
sg14
g15
(g19
S'\x05\x00\x00\x00\x00\x00\x00\x00'
p7184
tp7185
Rp7186
sg25
I1
sg26
I3
sg27
g28
ssS'1-00'
p7187
(dp7188
g13
I1
sg14
g15
(g19
S'\x05\x00\x00\x00\x00\x00\x00\x00'
p7189
tp7190
Rp7191
sg25
I0
sg26
I1
sg27
NssS'5-01'
p7192
(dp7193
g13
I5
sg14
g15
(g19
S'\x04\x00\x00\x00\x00\x00\x00\x00'
p7194
tp7195
Rp7196
sg25
I1
sg26
I2
sg27
g59
ssS'7-00'
p7197
(dp7198
g13
I7
sg14
g15
(g19
S'\x05\x00\x00\x00\x00\x00\x00\x00'
p7199
tp7200
Rp7201
sg25
I0
sg26
I3
sg27
g28
ssS'3-00'
p7202
(dp7203
g13
I3
sg14
g15
(g19
S'\x05\x00\x00\x00\x00\x00\x00\x00'
p7204
tp7205
Rp7206
sg25
I2
sg26
I1
sg27
NssS'6-04'
p7207
(dp7208
g13
I6
sg14
g15
(g19
S'\x03\x00\x00\x00\x00\x00\x00\x00'
p7209
tp7210
Rp7211
sg25
I2
sg26
I2
sg27
g161
ssS'6-05'
p7212
(dp7213
g13
I6
sg14
g15
(g19
S'\x02\x00\x00\x00\x00\x00\x00\x00'
p7214
tp7215
Rp7216
sg25
I2
sg26
I2
sg27
g59
ssS'2-00'
p7217
(dp7218
g13
I2
sg14
g15
(g19
S'\x05\x00\x00\x00\x00\x00\x00\x00'
p7219
tp7220
Rp7221
sg25
I1
sg26
I1
sg27
NssS'4-00'
p7222
(dp7223
g13
I4
sg14
g15
(g19
S'\x05\x00\x00\x00\x00\x00\x00\x00'
p7224
tp7225
Rp7226
sg25
I0
sg26
I2
sg27
g28
sssg192
g193
sg194
g193
sg195
(dp7227
g7142
(dp7228
S'7-00'
p7229
(dp7230
ssg7147
(dp7231
S'1-00'
p7232
(dp7233
ssg7152
(dp7234
S'7-00'
p7235
(dp7236
ssg7157
(dp7237
S'7-00'
p7238
(dp7239
ssg7162
(dp7240
S'7-00'
p7241
(dp7242
ssg7167
(dp7243
S'7-00'
p7244
(dp7245
ssg7172
(dp7246
S'6-03'
p7247
(dp7248
sS'6-02'
p7249
(dp7250
sS'6-01'
p7251
(dp7252
sS'6-00'
p7253
(dp7254
sS'6-07'
p7255
(dp7256
sS'6-06'
p7257
(dp7258
sS'6-04'
p7259
(dp7260
ssg7177
(dp7261
S'7-00'
p7262
(dp7263
ssg7182
(dp7264
sg7187
(dp7265
S'2-00'
p7266
(dp7267
ssg7192
(dp7268
S'6-00'
p7269
(dp7270
sS'6-05'
p7271
(dp7272
ssg7197
(dp7273
S'8-00'
p7274
(dp7275
ssg7202
(dp7276
S'4-00'
p7277
(dp7278
ssg7207
(dp7279
S'7-00'
p7280
(dp7281
ssg7212
(dp7282
S'7-00'
p7283
(dp7284
ssg7217
(dp7285
S'3-00'
p7286
(dp7287
ssg7222
(dp7288
S'5-00'
p7289
(dp7290
sS'5-01'
p7291
(dp7292
sssg338
g7227
sg339
(dp7293
sg341
g193
sg342
g7227
sg343
(dp7294
g7142
(dp7295
S'5-00'
p7296
g7248
ssg7147
(dp7297
sg7152
(dp7298
S'5-00'
p7299
g7252
ssg7157
(dp7300
S'5-00'
p7301
g7254
sS'5-01'
p7302
g7270
ssg7162
(dp7303
S'5-00'
p7304
g7256
ssg7167
(dp7305
S'5-00'
p7306
g7258
ssg7172
(dp7307
S'4-00'
p7308
g7290
ssg7177
(dp7309
S'5-00'
p7310
g7250
ssg7182
(dp7311
S'7-00'
p7312
g7275
ssg7187
(dp7313
S'0-00'
p7314
g7233
ssg7192
(dp7315
S'4-00'
p7316
g7292
ssg7197
(dp7317
S'6-03'
p7318
g7230
sS'6-02'
p7319
g7263
sS'6-01'
p7320
g7236
sS'6-00'
p7321
g7239
sS'6-07'
p7322
g7242
sS'6-06'
p7323
g7245
sS'6-05'
p7324
g7284
sS'6-04'
p7325
g7281
ssg7202
(dp7326
S'2-00'
p7327
g7287
ssg7207
(dp7328
S'5-00'
p7329
g7260
ssg7212
(dp7330
S'5-01'
p7331
g7272
ssg7217
(dp7332
S'1-00'
p7333
g7267
ssg7222
(dp7334
S'3-00'
p7335
g7278
sssbsg432
S'tommyatkins'
p7336
sg434
I01
sg435
S'H1'
p7337
sa(dp7338
g2
g3
(g4
g5
Ntp7339
Rp7340
(dp7341
g9
(dp7342
S'0-00'
p7343
(dp7344
g13
I0
sg14
g15
(g19
S'\x05\x00\x00\x00\x00\x00\x00\x00'
p7345
tp7346
Rp7347
sg25
I2
sg26
I0
sg27
NssS'5-04'
p7348
(dp7349
g13
I5
sg14
g15
(g19
S'\x04\x00\x00\x00\x00\x00\x00\x00'
p7350
tp7351
Rp7352
sg25
I1
sg26
I2
sg27
g28
ssS'5-05'
p7353
(dp7354
g13
I5
sg14
g15
(g19
S'\x03\x00\x00\x00\x00\x00\x00\x00'
p7355
tp7356
Rp7357
sg25
I1
sg26
I2
sg27
g28
ssS'5-02'
p7358
(dp7359
g13
I5
sg14
g15
(g19
S'\x03\x00\x00\x00\x00\x00\x00\x00'
p7360
tp7361
Rp7362
sg25
I1
sg26
I2
sg27
g161
ssS'5-03'
p7363
(dp7364
g13
I5
sg14
g15
(g19
S'\x03\x00\x00\x00\x00\x00\x00\x00'
p7365
tp7366
Rp7367
sg25
I1
sg26
I2
sg27
g161
ssS'5-00'
p7368
(dp7369
g13
I5
sg14
g15
(g19
S'\x05\x00\x00\x00\x00\x00\x00\x00'
p7370
tp7371
Rp7372
sg25
I1
sg26
I2
sg27
g59
ssS'5-01'
p7373
(dp7374
g13
I5
sg14
g15
(g19
S'\x04\x00\x00\x00\x00\x00\x00\x00'
p7375
tp7376
Rp7377
sg25
I1
sg26
I2
sg27
g59
ssS'8-00'
p7378
(dp7379
g13
I8
sg14
g15
(g19
S'\x05\x00\x00\x00\x00\x00\x00\x00'
p7380
tp7381
Rp7382
sg25
I1
sg26
I3
sg27
g28
ssS'1-00'
p7383
(dp7384
g13
I1
sg14
g15
(g19
S'\x05\x00\x00\x00\x00\x00\x00\x00'
p7385
tp7386
Rp7387
sg25
I0
sg26
I1
sg27
NssS'7-00'
p7388
(dp7389
g13
I7
sg14
g15
(g19
S'\x05\x00\x00\x00\x00\x00\x00\x00'
p7390
tp7391
Rp7392
sg25
I0
sg26
I3
sg27
g28
ssS'6-01'
p7393
(dp7394
g13
I6
sg14
g15
(g19
S'\x04\x00\x00\x00\x00\x00\x00\x00'
p7395
tp7396
Rp7397
sg25
I2
sg26
I2
sg27
g161
ssS'3-00'
p7398
(dp7399
g13
I3
sg14
g15
(g19
S'\x05\x00\x00\x00\x00\x00\x00\x00'
p7400
tp7401
Rp7402
sg25
I2
sg26
I1
sg27
g28
ssS'6-00'
p7403
(dp7404
g13
I6
sg14
g15
(g19
S'\x05\x00\x00\x00\x00\x00\x00\x00'
p7405
tp7406
Rp7407
sg25
I2
sg26
I2
sg27
g59
ssS'2-00'
p7408
(dp7409
g13
I2
sg14
g15
(g19
S'\x05\x00\x00\x00\x00\x00\x00\x00'
p7410
tp7411
Rp7412
sg25
I1
sg26
I1
sg27
g28
ssS'4-01'
p7413
(dp7414
g13
I4
sg14
g15
(g19
S'\x03\x00\x00\x00\x00\x00\x00\x00'
p7415
tp7416
Rp7417
sg25
I0
sg26
I2
sg27
g28
ssS'4-00'
p7418
(dp7419
g13
I4
sg14
g15
(g19
S'\x05\x00\x00\x00\x00\x00\x00\x00'
p7420
tp7421
Rp7422
sg25
I0
sg26
I2
sg27
g59
ssS'4-03'
p7423
(dp7424
g13
I4
sg14
g15
(g19
S'\x03\x00\x00\x00\x00\x00\x00\x00'
p7425
tp7426
Rp7427
sg25
I0
sg26
I2
sg27
g28
ssS'4-02'
p7428
(dp7429
g13
I4
sg14
g15
(g19
S'\x04\x00\x00\x00\x00\x00\x00\x00'
p7430
tp7431
Rp7432
sg25
I0
sg26
I2
sg27
g28
sssg192
g193
sg194
g193
sg195
(dp7433
g7343
(dp7434
S'1-00'
p7435
(dp7436
ssg7348
(dp7437
S'6-00'
p7438
(dp7439
ssg7353
(dp7440
S'6-01'
p7441
(dp7442
ssg7358
(dp7443
S'6-00'
p7444
(dp7445
ssg7363
(dp7446
S'6-00'
p7447
(dp7448
ssg7368
(dp7449
S'6-00'
p7450
(dp7451
ssg7373
(dp7452
S'6-01'
p7453
(dp7454
ssg7378
(dp7455
sg7383
(dp7456
S'2-00'
p7457
(dp7458
ssg7388
(dp7459
S'8-00'
p7460
(dp7461
ssg7393
(dp7462
S'7-00'
p7463
(dp7464
ssg7398
(dp7465
S'4-01'
p7466
(dp7467
sS'4-00'
p7468
(dp7469
sS'4-03'
p7470
(dp7471
sS'4-02'
p7472
(dp7473
ssg7403
(dp7474
S'7-00'
p7475
(dp7476
ssg7408
(dp7477
S'3-00'
p7478
(dp7479
ssg7413
(dp7480
S'5-03'
p7481
(dp7482
ssg7418
(dp7483
S'5-05'
p7484
(dp7485
sS'5-02'
p7486
(dp7487
sS'5-00'
p7488
(dp7489
sS'5-01'
p7490
(dp7491
ssg7423
(dp7492
S'5-00'
p7493
(dp7494
ssg7428
(dp7495
S'5-04'
p7496
(dp7497
sssg338
g7433
sg339
(dp7498
sg341
g193
sg342
g7433
sg343
(dp7499
g7343
(dp7500
sg7348
(dp7501
S'4-02'
p7502
g7497
ssg7353
(dp7503
S'4-00'
p7504
g7485
ssg7358
(dp7505
S'4-00'
p7506
g7487
ssg7363
(dp7507
S'4-01'
p7508
g7482
ssg7368
(dp7509
S'4-00'
p7510
g7489
sS'4-03'
p7511
g7494
ssg7373
(dp7512
S'4-00'
p7513
g7491
ssg7378
(dp7514
S'7-00'
p7515
g7461
ssg7383
(dp7516
S'0-00'
p7517
g7436
ssg7388
(dp7518
S'6-01'
p7519
g7464
sS'6-00'
p7520
g7476
ssg7393
(dp7521
S'5-05'
p7522
g7442
sS'5-01'
p7523
g7454
ssg7398
(dp7524
S'2-00'
p7525
g7479
ssg7403
(dp7526
S'5-04'
p7527
g7439
sS'5-02'
p7528
g7445
sS'5-03'
p7529
g7448
sS'5-00'
p7530
g7451
ssg7408
(dp7531
S'1-00'
p7532
g7458
ssg7413
(dp7533
S'3-00'
p7534
g7467
ssg7418
(dp7535
S'3-00'
p7536
g7469
ssg7423
(dp7537
S'3-00'
p7538
g7471
ssg7428
(dp7539
S'3-00'
p7540
g7473
sssbsg432
S'tommyatkins'
p7541
sg434
I01
sg435
S'H3'
p7542
sa(dp7543
g2
g3
(g4
g5
Ntp7544
Rp7545
(dp7546
g9
(dp7547
S'0-00'
p7548
(dp7549
g13
I0
sg14
g15
(g19
S'\x05\x00\x00\x00\x00\x00\x00\x00'
p7550
tp7551
Rp7552
sg25
I2
sg26
I0
sg27
NssS'6-01'
p7553
(dp7554
g13
I6
sg14
g15
(g19
S'\x03\x00\x00\x00\x00\x00\x00\x00'
p7555
tp7556
Rp7557
sg25
I2
sg26
I2
sg27
g115
ssS'6-00'
p7558
(dp7559
g13
I6
sg14
g15
(g19
S'\x05\x00\x00\x00\x00\x00\x00\x00'
p7560
tp7561
Rp7562
sg25
I2
sg26
I2
sg27
g161
ssS'5-02'
p7563
(dp7564
g13
I5
sg14
g15
(g19
S'\x03\x00\x00\x00\x00\x00\x00\x00'
p7565
tp7566
Rp7567
sg25
I1
sg26
I2
sg27
g161
ssS'5-03'
p7568
(dp7569
g13
I5
sg14
g15
(g19
S'\x02\x00\x00\x00\x00\x00\x00\x00'
p7570
tp7571
Rp7572
sg25
I1
sg26
I2
sg27
g28
ssS'5-00'
p7573
(dp7574
g13
I5
sg14
g15
(g19
S'\x05\x00\x00\x00\x00\x00\x00\x00'
p7575
tp7576
Rp7577
sg25
I1
sg26
I2
sg27
g59
ssS'6-02'
p7578
(dp7579
g13
I6
sg14
g15
(g19
S'\x03\x00\x00\x00\x00\x00\x00\x00'
p7580
tp7581
Rp7582
sg25
I2
sg26
I2
sg27
g59
ssS'8-00'
p7583
(dp7584
g13
I8
sg14
g15
(g19
S'\x05\x00\x00\x00\x00\x00\x00\x00'
p7585
tp7586
Rp7587
sg25
I1
sg26
I3
sg27
NssS'1-00'
p7588
(dp7589
g13
I1
sg14
g15
(g19
S'\x05\x00\x00\x00\x00\x00\x00\x00'
p7590
tp7591
Rp7592
sg25
I0
sg26
I1
sg27
NssS'5-01'
p7593
(dp7594
g13
I5
sg14
g15
(g19
S'\x03\x00\x00\x00\x00\x00\x00\x00'
p7595
tp7596
Rp7597
sg25
I1
sg26
I2
sg27
g115
ssS'7-00'
p7598
(dp7599
g13
I7
sg14
g15
(g19
S'\x05\x00\x00\x00\x00\x00\x00\x00'
p7600
tp7601
Rp7602
sg25
I0
sg26
I3
sg27
NssS'3-00'
p7603
(dp7604
g13
I3
sg14
g15
(g19
S'\x05\x00\x00\x00\x00\x00\x00\x00'
p7605
tp7606
Rp7607
sg25
I2
sg26
I1
sg27
g28
ssS'2-00'
p7608
(dp7609
g13
I2
sg14
g15
(g19
S'\x05\x00\x00\x00\x00\x00\x00\x00'
p7610
tp7611
Rp7612
sg25
I1
sg26
I1
sg27
g28
ssS'4-01'
p7613
(dp7614
g13
I4
sg14
g15
(g19
S'\x03\x00\x00\x00\x00\x00\x00\x00'
p7615
tp7616
Rp7617
sg25
I0
sg26
I2
sg27
g115
ssS'4-00'
p7618
(dp7619
g13
I4
sg14
g15
(g19
S'\x05\x00\x00\x00\x00\x00\x00\x00'
p7620
tp7621
Rp7622
sg25
I0
sg26
I2
sg27
g28
ssS'4-03'
p7623
(dp7624
g13
I4
sg14
g15
(g19
S'\x03\x00\x00\x00\x00\x00\x00\x00'
p7625
tp7626
Rp7627
sg25
I0
sg26
I2
sg27
g115
ssS'4-02'
p7628
(dp7629
g13
I4
sg14
g15
(g19
S'\x02\x00\x00\x00\x00\x00\x00\x00'
p7630
tp7631
Rp7632
sg25
I0
sg26
I2
sg27
g115
sssg192
g193
sg194
g193
sg195
(dp7633
g7548
(dp7634
S'1-00'
p7635
(dp7636
ssg7553
(dp7637
S'7-00'
p7638
(dp7639
ssg7558
(dp7640
S'7-00'
p7641
(dp7642
ssg7563
(dp7643
S'6-00'
p7644
(dp7645
ssg7568
(dp7646
S'6-00'
p7647
(dp7648
ssg7573
(dp7649
S'6-02'
p7650
(dp7651
sS'6-00'
p7652
(dp7653
ssg7578
(dp7654
S'7-00'
p7655
(dp7656
ssg7583
(dp7657
sg7588
(dp7658
S'2-00'
p7659
(dp7660
ssg7593
(dp7661
S'6-01'
p7662
(dp7663
ssg7598
(dp7664
S'8-00'
p7665
(dp7666
ssg7603
(dp7667
S'4-01'
p7668
(dp7669
sS'4-00'
p7670
(dp7671
sS'4-03'
p7672
(dp7673
sS'4-02'
p7674
(dp7675
ssg7608
(dp7676
S'3-00'
p7677
(dp7678
ssg7613
(dp7679
S'5-01'
p7680
(dp7681
ssg7618
(dp7682
S'5-02'
p7683
(dp7684
sS'5-03'
p7685
(dp7686
sS'5-00'
p7687
(dp7688
ssg7623
(dp7689
S'5-00'
p7690
(dp7691
ssg7628
(dp7692
S'5-00'
p7693
(dp7694
sssg338
g7633
sg339
(dp7695
sg341
g193
sg342
g7633
sg343
(dp7696
g7548
(dp7697
sg7553
(dp7698
S'5-01'
p7699
g7663
ssg7558
(dp7700
S'5-02'
p7701
g7645
sS'5-03'
p7702
g7648
sS'5-00'
p7703
g7653
ssg7563
(dp7704
S'4-00'
p7705
g7684
ssg7568
(dp7706
S'4-00'
p7707
g7686
ssg7573
(dp7708
S'4-00'
p7709
g7688
sS'4-03'
p7710
g7691
sS'4-02'
p7711
g7694
ssg7578
(dp7712
S'5-00'
p7713
g7651
ssg7583
(dp7714
S'7-00'
p7715
g7666
ssg7588
(dp7716
S'0-00'
p7717
g7636
ssg7593
(dp7718
S'4-01'
p7719
g7681
ssg7598
(dp7720
S'6-02'
p7721
g7656
sS'6-01'
p7722
g7639
sS'6-00'
p7723
g7642
ssg7603
(dp7724
S'2-00'
p7725
g7678
ssg7608
(dp7726
S'1-00'
p7727
g7660
ssg7613
(dp7728
S'3-00'
p7729
g7669
ssg7618
(dp7730
S'3-00'
p7731
g7671
ssg7623
(dp7732
S'3-00'
p7733
g7673
ssg7628
(dp7734
S'3-00'
p7735
g7675
sssbsg432
S'tommyatkins'
p7736
sg434
I00
sg435
S'H6'
p7737
sa.